ccopy_reg
_reconstructor
p1
(cdeepThought.ORM.ORM
Job
p2
c__builtin__
object
p3
NtRp4
(dp5
S'already_initialized'
p6
I00
sS'test_beds'
p7
(dp8
S'ID09IJ10'
p9
g1
(cdeepThought.ORM.ORM
Resource
p10
g3
NtRp11
(dp12
S'name'
p13
S'testBed: ID09IJ10'
p14
sS'max_share_count'
p15
I1
sS'required_by'
p16
(lp17
sS'share_count'
p18
I1
sS'provided_capabilities'
p19
(lp20
sS'id'
p21
g9
sS'is_testbed'
p22
I01
sbsS'ID5L2MTJ'
p23
g1
(g10
g3
NtRp24
(dp25
g13
S'testBed: ID5L2MTJ'
p26
sg15
I1
sg16
(lp27
sg18
I1
sg19
(lp28
sg21
g23
sg22
I01
sbsS'ID3PGG9M'
p29
g1
(g10
g3
NtRp30
(dp31
g13
S'testBed: ID3PGG9M'
p32
sg15
I1
sg16
(lp33
sg18
I1
sg19
(lp34
sg21
g29
sg22
I01
sbsS'ID5RVBH1'
p35
g1
(g10
g3
NtRp36
(dp37
g13
S'testBed: ID5RVBH1'
p38
sg15
I1
sg16
(lp39
sg18
I1
sg19
(lp40
sg21
g35
sg22
I01
sbsS'IDNB3KDI'
p41
g1
(g10
g3
NtRp42
(dp43
g13
S'testBed: IDNB3KDI'
p44
sg15
I1
sg16
(lp45
sg18
I1
sg19
(lp46
sg21
g41
sg22
I01
sbsS'IDMHWX3W'
p47
g1
(g10
g3
NtRp48
(dp49
g13
S'testBed: IDMHWX3W'
p50
sg15
I1
sg16
(lp51
sg18
I1
sg19
(lp52
sg21
g47
sg22
I01
sbsS'ID2DJUGG'
p53
g1
(g10
g3
NtRp54
(dp55
g13
S'testBed: ID2DJUGG'
p56
sg15
I1
sg16
(lp57
sg18
I1
sg19
(lp58
sg21
g53
sg22
I01
sbsS'IDBKMZXW'
p59
g1
(g10
g3
NtRp60
(dp61
g13
S'testBed: IDBKMZXW'
p62
sg15
I1
sg16
(lp63
sg18
I1
sg19
(lp64
sg21
g59
sg22
I01
sbsS'IDB42QO0'
p65
g1
(g10
g3
NtRp66
(dp67
g13
S'testBed: IDB42QO0'
p68
sg15
I1
sg16
(lp69
sg18
I1
sg19
(lp70
sg21
g65
sg22
I01
sbsS'IDH64YNI'
p71
g1
(g10
g3
NtRp72
(dp73
g13
S'testBed: IDH64YNI'
p74
sg15
I1
sg16
(lp75
sg18
I1
sg19
(lp76
sg21
g71
sg22
I01
sbsS'IDBVRXED'
p77
g1
(g10
g3
NtRp78
(dp79
g13
S'testBed: IDBVRXED'
p80
sg15
I1
sg16
(lp81
sg18
I1
sg19
(lp82
sg21
g77
sg22
I01
sbssS'tasks'
p83
(dp84
S'IDCM8C51'
p85
(ideepThought.ORM.ORM
Task
p86
(dp87
S'deviation'
p88
NsS'execution_time_limit'
p89
I-1
sS'pre_computed_execution_times'
p90
(lp91
sg13
S''
sS'execution_history'
p92
(lp93
I2696
aI5085
aI4963
aI5019
aI1155
aI1172
aI1191
aI5061
aI5090
aI2699
aI5076
aI1823
aI1133
aI1112
aI1128
aI1127
aI1128
aI1133
aI1865
aI1446
aI4045
aI4043
aI1016
aI3975
aI4071
aI4073
aI3354
aI3983
aI1096
aI1113
aI1099
aI1105
aI4241
aI2343
aI4146
aI4223
aI3306
aI74
aI1518
aI4058
aI4123
aI810
aI1179
aI1094
aI1102
aI1102
aI1133
aI1153
aI1103
aI1091
aI4767
aI1091
aI1168
aI2769
aI4839
aI1132
aI4830
aI4809
aI4820
aI4769
aI3955
aI4827
asS'number_of_executions'
p94
F0
sS'priority'
p95
I2
sS'inverse_cdf'
p96
NsS'distribution_type'
p97
NsS'required_resources'
p98
(lp99
g1
(g10
g3
NtRp100
(dp101
g13
S'ID2D4SUG'
p102
sg15
I1
sg16
(lp103
sg18
I1
sg19
(lp104
g1
(cdeepThought.ORM.ORM
Capability
p105
g3
NtRp106
(dp107
S'attributes'
p108
(lp109
g1
(cdeepThought.ORM.ORM
Attribute
p110
g3
NtRp111
(dp112
g21
S'IDX339TV'
p113
sS'value'
p114
S''
sg13
S'NAMEMSDESY'
p115
sbag1
(g110
g3
NtRp116
(dp117
g21
S'IDLS9T69'
p118
sg114
S''
sg13
S'NAMERBVF3I'
p119
sbag1
(g110
g3
NtRp120
(dp121
g21
S'ID4AXDQN'
p122
sg114
S''
sg13
S'NAMEQG64OB'
p123
sbag1
(g110
g3
NtRp124
(dp125
g21
S'IDD3J839'
p126
sg114
S''
sg13
S'NAMEORUOBQ'
p127
sbag1
(g110
g3
NtRp128
(dp129
g21
S'IDQV3OG8'
p130
sg114
S''
sg13
S'NAME4A5OQC'
p131
sbag1
(g110
g3
NtRp132
(dp133
g21
S'IDIPQ6D6'
p134
sg114
S''
sg13
S'NAMEX5ZI7W'
p135
sbag1
(g110
g3
NtRp136
(dp137
g21
S'IDUZ56CZ'
p138
sg114
S''
sg13
S'NAMEPYDRSU'
p139
sbag1
(g110
g3
NtRp140
(dp141
g21
S'ID7GCIN2'
p142
sg114
S''
sg13
S'NAMELFUQFC'
p143
sbag1
(g110
g3
NtRp144
(dp145
g21
S'ID7XP8AK'
p146
sg114
S''
sg13
S'NAMEFZ9ZPY'
p147
sbasS'summary'
p148
S'ID5O0IJQ'
p149
sg21
S'IDD3FK9M'
p150
sg13
S''
sbag1
(g105
g3
NtRp151
(dp152
g108
(lp153
g1
(g110
g3
NtRp154
(dp155
g21
S'IDG6UNAZ'
p156
sg114
S''
sg13
S'NAMEIZETZT'
p157
sbag1
(g110
g3
NtRp158
(dp159
g21
S'IDYD3LCG'
p160
sg114
S''
sg13
S'NAME66YVUL'
p161
sbag1
(g110
g3
NtRp162
(dp163
g21
S'ID7XDZLH'
p164
sg114
S''
sg13
S'NAMEI9W1SB'
p165
sbag1
(g110
g3
NtRp166
(dp167
g21
S'IDJ87IDX'
p168
sg114
S''
sg13
S'NAMEPC608S'
p169
sbasg148
S'IDRDAGKM'
p170
sg21
S'IDFIUU6Z'
p171
sg13
S''
sbag1
(g105
g3
NtRp172
(dp173
g108
(lp174
g1
(g110
g3
NtRp175
(dp176
g21
S'ID5Z4BCN'
p177
sg114
S''
sg13
S'NAMEAQXBAH'
p178
sbasg148
S'ID5YJEAI'
p179
sg21
S'IDXFWNVF'
p180
sg13
S''
sbag1
(g105
g3
NtRp181
(dp182
g108
(lp183
g1
(g110
g3
NtRp184
(dp185
g21
S'IDBX8BR0'
p186
sg114
S''
sg13
S'NAMEMA2SAN'
p187
sbag1
(g110
g3
NtRp188
(dp189
g21
S'ID3904ZG'
p190
sg114
S''
sg13
S'NAMEVIKKO0'
p191
sbasg148
S'IDNBQP9C'
p192
sg21
S'IDIQ9PMJ'
p193
sg13
S''
sbag1
(g105
g3
NtRp194
(dp195
g108
(lp196
g1
(g110
g3
NtRp197
(dp198
g21
S'IDDEIKU0'
p199
sg114
S''
sg13
S'NAMEPPGA3O'
p200
sbag1
(g110
g3
NtRp201
(dp202
g21
S'ID4C1MT2'
p203
sg114
S''
sg13
S'NAMEP0QOZL'
p204
sbag1
(g110
g3
NtRp205
(dp206
g21
S'IDXOXDTC'
p207
sg114
S''
sg13
S'NAME5M6ZGH'
p208
sbasg148
S'ID5880EG'
p209
sg21
S'ID5VUDUN'
p210
sg13
S''
sbag1
(g105
g3
NtRp211
(dp212
g108
(lp213
g1
(g110
g3
NtRp214
(dp215
g21
S'ID2BE72L'
p216
sg114
S''
sg13
S'NAMETVBTB8'
p217
sbag1
(g110
g3
NtRp218
(dp219
g21
S'IDUMXODS'
p220
sg114
S''
sg13
S'NAME0HR05W'
p221
sbag1
(g110
g3
NtRp222
(dp223
g21
S'IDMCUSL0'
p224
sg114
S''
sg13
S'NAME8OK460'
p225
sbag1
(g110
g3
NtRp226
(dp227
g21
S'IDX9IXN1'
p228
sg114
S''
sg13
S'NAMERCIEP4'
p229
sbag1
(g110
g3
NtRp230
(dp231
g21
S'IDYNE7JZ'
p232
sg114
S''
sg13
S'NAMEX3ZVYI'
p233
sbag1
(g110
g3
NtRp234
(dp235
g21
S'ID76R1BJ'
p236
sg114
S''
sg13
S'NAMEFFGRWT'
p237
sbag1
(g110
g3
NtRp238
(dp239
g21
S'IDP309QU'
p240
sg114
S''
sg13
S'NAMEA4TIS1'
p241
sbasg148
S'ID55HR4V'
p242
sg21
S'IDLAKZTY'
p243
sg13
S''
sbag1
(g105
g3
NtRp244
(dp245
g108
(lp246
g1
(g110
g3
NtRp247
(dp248
g21
S'IDC5QLEL'
p249
sg114
S''
sg13
S'NAMES0BMHT'
p250
sbag1
(g110
g3
NtRp251
(dp252
g21
S'IDUGRWUK'
p253
sg114
S''
sg13
S'NAMEQ3OZEJ'
p254
sbag1
(g110
g3
NtRp255
(dp256
g21
S'IDIIMVRW'
p257
sg114
S''
sg13
S'NAME128WMD'
p258
sbag1
(g110
g3
NtRp259
(dp260
g21
S'IDP9DD2A'
p261
sg114
S''
sg13
S'NAMEZRSGC8'
p262
sbasg148
S'IDIXJD2U'
p263
sg21
S'ID1RXFML'
p264
sg13
S''
sbag1
(g105
g3
NtRp265
(dp266
g108
(lp267
sg148
S'testbed capability'
p268
sg21
g41
sg13
S''
sbasg21
S'ID8Y4YQJ'
p269
sg22
I00
sbag1
(g10
g3
NtRp270
(dp271
g13
S'ID1YXYT7'
p272
sg15
I1
sg16
(lp273
sg18
I1
sg19
(lp274
g194
ag211
ag244
ag1
(g105
g3
NtRp275
(dp276
g108
(lp277
g1
(g110
g3
NtRp278
(dp279
g21
S'IDPNRYGB'
p280
sg114
S''
sg13
S'NAMEMKEFCM'
p281
sbag1
(g110
g3
NtRp282
(dp283
g21
S'IDPD3DMW'
p284
sg114
S''
sg13
S'NAMEA5ZC5L'
p285
sbag1
(g110
g3
NtRp286
(dp287
g21
S'ID5AWJVE'
p288
sg114
S''
sg13
S'NAMEJD8VC0'
p289
sbag1
(g110
g3
NtRp290
(dp291
g21
S'IDR2HF81'
p292
sg114
S''
sg13
S'NAMEC4NMJV'
p293
sbasg148
S'IDD0XVC3'
p294
sg21
S'IDUV5CO1'
p295
sg13
S''
sbag106
ag1
(g105
g3
NtRp296
(dp297
g108
(lp298
g1
(g110
g3
NtRp299
(dp300
g21
S'IDAYEQLQ'
p301
sg114
S''
sg13
S'NAME3Q74Z3'
p302
sbasg148
S'IDF38WLI'
p303
sg21
S'ID2CC46H'
p304
sg13
S''
sbag151
ag1
(g105
g3
NtRp305
(dp306
g108
(lp307
g1
(g110
g3
NtRp308
(dp309
g21
S'IDLPHVYX'
p310
sg114
S''
sg13
S'NAME3KFVS8'
p311
sbag1
(g110
g3
NtRp312
(dp313
g21
S'ID61BQCI'
p314
sg114
S''
sg13
S'NAME9JQDS8'
p315
sbasg148
S'IDRR0QJ4'
p316
sg21
S'IDDMPNKW'
p317
sg13
S''
sbag1
(g105
g3
NtRp318
(dp319
g108
(lp320
g1
(g110
g3
NtRp321
(dp322
g21
S'IDN5BC9I'
p323
sg114
S''
sg13
S'NAMEFLUOO0'
p324
sbasg148
S'IDHFDC5U'
p325
sg21
S'IDY62RFV'
p326
sg13
S''
sbag265
asg21
S'ID0WWQP3'
p327
sg22
I00
sbag1
(cdeepThought.ORM.ORM
RequiredResource
p328
g3
NtRp329
(dp330
S'required_capabilities'
p331
(lp332
g1
(g105
g3
NtRp333
(dp334
g108
(lp335
g1
(g110
g3
NtRp336
(dp337
g21
S'IDA5B5QV'
p338
sg114
S''
sg13
S'NAMEA9KQRS'
p339
sbasg148
S'IDMSQBA5'
p340
sg21
S'ID9RF1B1'
p341
sg13
S''
sbag151
ag194
ag106
ag211
ag265
asg22
I00
sg13
S'NAME909M2D'
p342
sS'number_required'
p343
I0
sS'fulfilled_by'
p344
(lp345
sbag1
(g328
g3
NtRp346
(dp347
g331
(lp348
g1
(g105
g3
NtRp349
(dp350
g108
(lp351
g1
(g110
g3
NtRp352
(dp353
g21
S'ID9076P2'
p354
sg114
S''
sg13
S'NAMET9FHP1'
p355
sbag1
(g110
g3
NtRp356
(dp357
g21
S'IDQKB34S'
p358
sg114
S''
sg13
S'NAME7XYZOF'
p359
sbasg148
S'ID9TJEB6'
p360
sg21
S'ID89C9XX'
p361
sg13
S''
sbag151
ag194
ag106
ag211
ag1
(g105
g3
NtRp362
(dp363
g108
(lp364
g1
(g110
g3
NtRp365
(dp366
g21
S'ID7Y9D5U'
p367
sg114
S''
sg13
S'NAMEJ042GR'
p368
sbag1
(g110
g3
NtRp369
(dp370
g21
S'IDDHAKR6'
p371
sg114
S''
sg13
S'NAMEFIM36E'
p372
sbasg148
S'IDU5A3BX'
p373
sg21
S'IDSJCY25'
p374
sg13
S''
sbag265
asg22
I00
sg13
S'NAME3NC5ZR'
p375
sg343
I0
sg344
(lp376
sbag1
(g328
g3
NtRp377
(dp378
g331
(lp379
g1
(g105
g3
NtRp380
(dp381
g108
(lp382
g1
(g110
g3
NtRp383
(dp384
g21
S'IDUTEGV8'
p385
sg114
S''
sg13
S'NAMEPPR283'
p386
sbasg148
S'IDIJ309J'
p387
sg21
S'IDOR5GXW'
p388
sg13
S''
sbag151
ag194
ag106
ag211
ag265
asg22
I00
sg13
S'NAMEEN0NGZ'
p389
sg343
I0
sg344
(lp390
sbag1
(g10
g3
NtRp391
(dp392
g13
S'ID7I8JEO'
p393
sg15
I0
sg16
(lp394
sg18
I0
sg19
(lp395
g1
(g105
g3
NtRp396
(dp397
g108
(lp398
g1
(g110
g3
NtRp399
(dp400
g21
S'IDL2FSS3'
p401
sg114
S''
sg13
S'NAMEJX2G79'
p402
sbasg148
S'IDQ4MT3C'
p403
sg21
S'IDRAZHGS'
p404
sg13
S''
sbag265
ag1
(g105
g3
NtRp405
(dp406
g108
(lp407
sg148
g268
sg21
g71
sg13
S''
sbag1
(g105
g3
NtRp408
(dp409
g108
(lp410
sg148
g268
sg21
g59
sg13
S''
sbag1
(g105
g3
NtRp411
(dp412
g108
(lp413
sg148
g268
sg21
g35
sg13
S''
sbag1
(g105
g3
NtRp414
(dp415
g108
(lp416
sg148
g268
sg21
g9
sg13
S''
sbasg21
S'IDTEBD50'
p417
sg22
I00
sbag1
(g10
g3
NtRp418
(dp419
g13
S'IDHBAP9E'
p420
sg15
I0
sg16
(lp421
sg18
I0
sg19
(lp422
g1
(g105
g3
NtRp423
(dp424
g108
(lp425
g1
(g110
g3
NtRp426
(dp427
g21
S'IDJEKMZ5'
p428
sg114
S''
sg13
S'NAMEUEGE8R'
p429
sbasg148
S'IDI6G849'
p430
sg21
S'IDIPMIM4'
p431
sg13
S''
sbag265
ag408
ag411
asg21
S'IDG7TFCD'
p432
sg22
I00
sbag1
(g328
g3
NtRp433
(dp434
g331
(lp435
g1
(g105
g3
NtRp436
(dp437
g108
(lp438
g1
(g110
g3
NtRp439
(dp440
g21
S'IDXB1XHV'
p441
sg114
S''
sg13
S'NAMESYHVXA'
p442
sbasg148
S'IDAY4ABA'
p443
sg21
S'IDPX9PDI'
p444
sg13
S''
sbag265
asg22
I00
sg13
S'NAMEAPHYT4'
p445
sg343
I0
sg344
(lp446
sbag1
(g10
g3
NtRp447
(dp448
g13
S'IDOYRFCF'
p449
sg15
I0
sg16
(lp450
sg18
I0
sg19
(lp451
g1
(g105
g3
NtRp452
(dp453
g108
(lp454
g1
(g110
g3
NtRp455
(dp456
g21
S'IDBZJEKR'
p457
sg114
S''
sg13
S'NAMEQZK1Y6'
p458
sbasg148
S'ID2KGYDG'
p459
sg21
S'ID6W00KK'
p460
sg13
S''
sbag265
ag408
ag411
asg21
S'IDAVPORT'
p461
sg22
I00
sbag1
(g10
g3
NtRp462
(dp463
g13
S'IDHZSLMJ'
p464
sg15
I0
sg16
(lp465
sg18
I0
sg19
(lp466
g1
(g105
g3
NtRp467
(dp468
g108
(lp469
g1
(g110
g3
NtRp470
(dp471
g21
S'IDXWK72Y'
p472
sg114
S''
sg13
S'NAMESNPKUY'
p473
sbasg148
S'IDIJTBML'
p474
sg21
S'IDG1BAA5'
p475
sg13
S''
sbag265
ag1
(g105
g3
NtRp476
(dp477
g108
(lp478
sg148
g268
sg21
g47
sg13
S''
sbag408
ag411
asg21
S'ID7HPTQD'
p479
sg22
I00
sbag1
(g10
g3
NtRp480
(dp481
g13
S'IDHUOX6M'
p482
sg15
I0
sg16
(lp483
sg18
I0
sg19
(lp484
g194
ag1
(g105
g3
NtRp485
(dp486
g108
(lp487
g1
(g110
g3
NtRp488
(dp489
g21
S'IDLV6YKD'
p490
sg114
S''
sg13
S'NAMEDRZD6U'
p491
sbasg148
S'IDFL0PKA'
p492
sg21
S'ID2V827M'
p493
sg13
S''
sbag265
ag476
ag405
ag408
ag411
ag414
asg21
S'IDX6EZZA'
p494
sg22
I00
sbag42
asg21
g85
sS'mean'
p495
NsbsS'IDJL8OAH'
p496
(ideepThought.ORM.ORM
Task
p497
(dp498
g88
F10338.134131964423
sg89
I36000
sg90
(lp499
sg13
S''
sg92
(lp500
I21501
aI21478
aI18937
aI71
asg94
F41
sg95
I2
sg96
Nsg97
Nsg98
(lp501
g1
(g328
g3
NtRp502
(dp503
g331
(lp504
g172
ag151
ag194
ag106
ag211
ag244
ag181
asg22
I00
sg13
S'NAMEM6GKFC'
p505
sg343
I0
sg344
(lp506
sbag1
(g328
g3
NtRp507
(dp508
g331
(lp509
g318
ag151
ag194
ag296
ag275
ag305
ag106
ag211
ag244
asg22
I00
sg13
S'NAMETEJHMR'
p510
sg343
I0
sg344
(lp511
sbag1
(g328
g3
NtRp512
(dp513
g331
(lp514
g333
ag151
ag194
ag106
ag211
asg22
I00
sg13
S'NAMESZFM9G'
p515
sg343
I0
sg344
(lp516
sbag1
(g328
g3
NtRp517
(dp518
g331
(lp519
g349
ag151
ag194
ag106
ag211
ag362
asg22
I00
sg13
S'NAMEY10J8M'
p520
sg343
I0
sg344
(lp521
sbag1
(g328
g3
NtRp522
(dp523
g331
(lp524
g380
ag151
ag194
ag106
ag211
asg22
I00
sg13
S'NAMEL0U7MA'
p525
sg343
I0
sg344
(lp526
sbag1
(g10
g3
NtRp527
(dp528
g13
S'ID28UAZN'
p529
sg15
I0
sg16
(lp530
sg18
I0
sg19
(lp531
g396
ag265
ag405
ag408
ag411
ag414
asg21
S'IDSPVMI9'
p532
sg22
I00
sbag1
(g10
g3
NtRp533
(dp534
g13
S'ID3DEVF9'
p535
sg15
I0
sg16
(lp536
sg18
I0
sg19
(lp537
g423
ag265
ag408
ag411
asg21
S'IDX1V12P'
p538
sg22
I00
sbag1
(g328
g3
NtRp539
(dp540
g331
(lp541
g436
asg22
I00
sg13
S'NAMEO65CLC'
p542
sg343
I0
sg344
(lp543
sbag1
(g10
g3
NtRp544
(dp545
g13
S'IDUFWIPH'
p546
sg15
I0
sg16
(lp547
sg18
I0
sg19
(lp548
g452
ag265
ag476
ag408
ag411
asg21
S'IDSD5QZI'
p549
sg22
I00
sbag462
ag480
asg21
g496
sg495
F12766.658536585366
sbsS'IDP5KEY3'
p550
(ideepThought.ORM.ORM
Task
p551
(dp552
g88
F26002.578073892768
sg89
I-1
sg90
(lp553
sg13
S''
sg92
(lp554
I56764
aI49484
aI50173
aI49811
asg94
F10
sg95
I2
sg96
Nsg97
Nsg98
(lp555
g1
(g328
g3
NtRp556
(dp557
g331
(lp558
g172
ag151
ag194
ag106
ag211
ag244
ag181
ag476
asg22
I00
sg13
S'NAMEMY1YB6'
p559
sg343
I0
sg344
(lp560
sbag1
(g10
g3
NtRp561
(dp562
g13
S'IDRNCTSS'
p563
sg15
I1
sg16
(lp564
sg18
I1
sg19
(lp565
g305
ag318
ag194
ag211
ag244
ag275
ag106
ag296
ag151
ag476
asg21
S'IDXWQBAR'
p566
sg22
I00
sbag1
(g328
g3
NtRp567
(dp568
g331
(lp569
g333
ag151
ag194
ag106
ag211
ag476
asg22
I00
sg13
S'NAMEOQ1D9Y'
p570
sg343
I0
sg344
(lp571
sbag1
(g328
g3
NtRp572
(dp573
g331
(lp574
g349
ag151
ag194
ag106
ag211
ag362
ag476
asg22
I00
sg13
S'NAMEV7855Z'
p575
sg343
I0
sg344
(lp576
sbag1
(g328
g3
NtRp577
(dp578
g331
(lp579
g380
ag151
ag194
ag106
ag211
ag476
asg22
I00
sg13
S'NAMERJKPXS'
p580
sg343
I0
sg344
(lp581
sbag1
(g328
g3
NtRp582
(dp583
g331
(lp584
g396
ag476
asg22
I00
sg13
S'NAMESRBG5W'
p585
sg343
I0
sg344
(lp586
sbag1
(g328
g3
NtRp587
(dp588
g331
(lp589
g423
ag476
asg22
I00
sg13
S'NAMEH9FGCJ'
p590
sg343
I0
sg344
(lp591
sbag1
(g328
g3
NtRp592
(dp593
g331
(lp594
g436
ag476
asg22
I00
sg13
S'NAMEWAGXYI'
p595
sg343
I0
sg344
(lp596
sbag1
(g10
g3
NtRp597
(dp598
g13
S'IDDGQZ1H'
p599
sg15
I0
sg16
(lp600
sg18
I0
sg19
(lp601
g452
ag265
ag476
ag408
ag411
asg21
S'IDLP7YAR'
p602
sg22
I00
sbag1
(g328
g3
NtRp603
(dp604
g331
(lp605
g467
ag476
asg22
I00
sg13
S'NAMEAHTFIN'
p606
sg343
I0
sg344
(lp607
sbag1
(g328
g3
NtRp608
(dp609
g331
(lp610
g485
ag194
ag476
asg22
I00
sg13
S'NAME61WS5M'
p611
sg343
I0
sg344
(lp612
sbag48
asg21
g550
sg495
F29184.400000000001
sbsS'ID66H58D'
p613
(ideepThought.ORM.ORM
Task
p614
(dp615
g88
F22415.353267867526
sg89
I-1
sg90
(lp616
sg13
S''
sg92
(lp617
I43799
aI65782
aI68276
aI42098
aI50780
aI711
aI46026
aI713
aI65571
aI37898
aI39305
aI67823
aI38675
aI44591
aI38646
aI4780
aI699
aI68428
aI45023
aI69409
aI39002
aI70
aI45719
asg94
F49
sg95
I2
sg96
Nsg97
Nsg98
(lp618
g1
(g328
g3
NtRp619
(dp620
g331
(lp621
g172
ag151
ag194
ag106
ag211
ag244
ag181
asg22
I00
sg13
S'NAMEZGA24M'
p622
sg343
I0
sg344
(lp623
sbag1
(g328
g3
NtRp624
(dp625
g331
(lp626
g318
ag151
ag194
ag296
ag275
ag305
ag106
ag211
ag244
asg22
I00
sg13
S'NAME6GZ3DS'
p627
sg343
I0
sg344
(lp628
sbag1
(g328
g3
NtRp629
(dp630
g331
(lp631
g333
ag151
ag194
ag106
ag211
asg22
I00
sg13
S'NAME6MY3IA'
p632
sg343
I0
sg344
(lp633
sbag1
(g328
g3
NtRp634
(dp635
g331
(lp636
g349
ag151
ag194
ag106
ag211
ag362
asg22
I00
sg13
S'NAMEHJPX26'
p637
sg343
I0
sg344
(lp638
sbag1
(g328
g3
NtRp639
(dp640
g331
(lp641
g380
ag151
ag194
ag106
ag211
asg22
I00
sg13
S'NAME2WQM5O'
p642
sg343
I0
sg344
(lp643
sbag1
(g10
g3
NtRp644
(dp645
g13
S'IDC2FUEM'
p646
sg15
I0
sg16
(lp647
sg18
I0
sg19
(lp648
g396
ag265
ag405
ag408
ag411
ag414
asg21
S'IDSMAVBW'
p649
sg22
I00
sbag1
(g10
g3
NtRp650
(dp651
g13
S'IDU83XVO'
p652
sg15
I0
sg16
(lp653
sg18
I0
sg19
(lp654
g423
ag265
ag405
ag408
ag411
ag414
asg21
S'ID7K7GI9'
p655
sg22
I00
sbag1
(g328
g3
NtRp656
(dp657
g331
(lp658
g436
asg22
I00
sg13
S'NAMEFUKT6Y'
p659
sg343
I0
sg344
(lp660
sbag597
ag462
ag480
asg21
g613
sg495
F27190.040816326527
sbsS'IDYXU6NN'
p661
(ideepThought.ORM.ORM
Task
p662
(dp663
g88
F208.7653387578184
sg89
I1800
sg90
(lp664
sg13
S''
sg92
(lp665
sg94
F6
sg95
I2
sg96
Nsg97
Nsg98
(lp666
g1
(g328
g3
NtRp667
(dp668
g331
(lp669
g172
ag151
ag194
ag106
ag211
ag244
ag181
asg22
I00
sg13
S'NAMEP1VN9H'
p670
sg343
I0
sg344
(lp671
sbag1
(g328
g3
NtRp672
(dp673
g331
(lp674
g318
ag151
ag194
ag296
ag275
ag305
ag106
ag211
ag244
asg22
I00
sg13
S'NAME6CF96W'
p675
sg343
I0
sg344
(lp676
sbag1
(g328
g3
NtRp677
(dp678
g331
(lp679
g333
ag151
ag194
ag106
ag211
asg22
I00
sg13
S'NAMEBG5FA3'
p680
sg343
I0
sg344
(lp681
sbag1
(g328
g3
NtRp682
(dp683
g331
(lp684
g349
ag151
ag194
ag106
ag211
ag362
asg22
I00
sg13
S'NAMETEIE76'
p685
sg343
I0
sg344
(lp686
sbag1
(g328
g3
NtRp687
(dp688
g331
(lp689
g380
ag151
ag194
ag106
ag211
asg22
I00
sg13
S'NAMEWS1XPX'
p690
sg343
I0
sg344
(lp691
sbag391
ag418
ag1
(g328
g3
NtRp692
(dp693
g331
(lp694
g436
asg22
I00
sg13
S'NAMEDN3X4O'
p695
sg343
I0
sg344
(lp696
sbag1
(g10
g3
NtRp697
(dp698
g13
S'IDDCD4PY'
p699
sg15
I0
sg16
(lp700
sg18
I0
sg19
(lp701
g452
ag265
ag476
ag408
asg21
S'ID54N59K'
p702
sg22
I00
sbag462
ag480
asg21
g661
sg495
F270.16666666666663
sbsS'IDT449FO'
p703
(ideepThought.ORM.ORM
Task
p704
(dp705
g88
F1131.1081586951207
sg89
I36000
sg90
(lp706
sg13
S''
sg92
(lp707
sg94
F4
sg95
I2
sg96
Nsg97
Nsg98
(lp708
g1
(g328
g3
NtRp709
(dp710
g331
(lp711
g172
ag151
ag194
ag106
ag211
ag244
ag181
asg22
I00
sg13
S'NAMEVZPV0I'
p712
sg343
I0
sg344
(lp713
sbag1
(g328
g3
NtRp714
(dp715
g331
(lp716
g318
ag151
ag194
ag296
ag275
ag305
ag106
ag211
ag244
asg22
I00
sg13
S'NAMEBC9X3Z'
p717
sg343
I0
sg344
(lp718
sbag1
(g328
g3
NtRp719
(dp720
g331
(lp721
g333
ag151
ag194
ag106
ag211
asg22
I00
sg13
S'NAMEX5Z795'
p722
sg343
I0
sg344
(lp723
sbag1
(g328
g3
NtRp724
(dp725
g331
(lp726
g349
ag151
ag194
ag106
ag211
ag362
asg22
I00
sg13
S'NAMEC84F8T'
p727
sg343
I0
sg344
(lp728
sbag1
(g328
g3
NtRp729
(dp730
g331
(lp731
g380
ag151
ag194
ag106
ag211
asg22
I00
sg13
S'NAMET8726V'
p732
sg343
I0
sg344
(lp733
sbag527
ag533
ag1
(g328
g3
NtRp734
(dp735
g331
(lp736
g436
asg22
I00
sg13
S'NAMEN50TGR'
p737
sg343
I0
sg344
(lp738
sbag544
ag1
(g10
g3
NtRp739
(dp740
g13
S'IDGBWET8'
p741
sg15
I0
sg16
(lp742
sg18
I0
sg19
(lp743
g467
ag265
ag408
ag411
asg21
S'IDR1FWLO'
p744
sg22
I00
sbag480
asg21
g703
sg495
F2240.5
sbsS'IDTLEICR'
p745
(ideepThought.ORM.ORM
Task
p746
(dp747
g88
I0
sg89
I57600
sg90
(lp748
sg13
S''
sg92
(lp749
sg94
F1
sg95
I2
sg96
Nsg97
Nsg98
(lp750
g1
(g328
g3
NtRp751
(dp752
g331
(lp753
g172
ag151
ag194
ag106
ag211
ag244
ag181
asg22
I00
sg13
S'NAMEANEGPM'
p754
sg343
I0
sg344
(lp755
sbag1
(g328
g3
NtRp756
(dp757
g331
(lp758
g318
ag151
ag194
ag296
ag275
ag305
ag106
ag211
ag244
asg22
I00
sg13
S'NAMEB9O0KJ'
p759
sg343
I0
sg344
(lp760
sbag1
(g328
g3
NtRp761
(dp762
g331
(lp763
g333
ag151
ag194
ag106
ag211
asg22
I00
sg13
S'NAMEA4T12Y'
p764
sg343
I0
sg344
(lp765
sbag1
(g328
g3
NtRp766
(dp767
g331
(lp768
g349
ag151
ag194
ag106
ag211
ag362
asg22
I00
sg13
S'NAME9H1YKL'
p769
sg343
I0
sg344
(lp770
sbag1
(g328
g3
NtRp771
(dp772
g331
(lp773
g380
ag151
ag194
ag106
ag211
asg22
I00
sg13
S'NAMEYDY0YA'
p774
sg343
I0
sg344
(lp775
sbag527
ag533
ag1
(g328
g3
NtRp776
(dp777
g331
(lp778
g436
asg22
I00
sg13
S'NAMEP8FQ1F'
p779
sg343
I0
sg344
(lp780
sbag597
ag739
ag480
asg21
g745
sg495
F5418
sbsS'ID8FLGDS'
p781
(ideepThought.ORM.ORM
Task
p782
(dp783
g88
F30779.0047207508
sg89
I-1
sg90
(lp784
sg13
S''
sg92
(lp785
I2883
asg94
F10
sg95
I2
sg96
Nsg97
Nsg98
(lp786
g1
(g328
g3
NtRp787
(dp788
g331
(lp789
g172
ag151
ag194
ag106
ag211
ag244
ag181
asg22
I00
sg13
S'NAMENMXL7U'
p790
sg343
I0
sg344
(lp791
sbag1
(g328
g3
NtRp792
(dp793
g331
(lp794
g318
ag151
ag194
ag296
ag275
ag305
ag106
ag211
ag244
asg22
I00
sg13
S'NAMEBCJGY7'
p795
sg343
I0
sg344
(lp796
sbag1
(g328
g3
NtRp797
(dp798
g331
(lp799
g333
ag151
ag194
ag106
ag211
asg22
I00
sg13
S'NAMEWOXRZA'
p800
sg343
I0
sg344
(lp801
sbag1
(g328
g3
NtRp802
(dp803
g331
(lp804
g349
ag151
ag194
ag106
ag211
ag362
asg22
I00
sg13
S'NAMEXFIV4Y'
p805
sg343
I0
sg344
(lp806
sbag1
(g328
g3
NtRp807
(dp808
g331
(lp809
g380
ag151
ag194
ag106
ag211
asg22
I00
sg13
S'NAMEBLT6QQ'
p810
sg343
I0
sg344
(lp811
sbag644
ag650
ag1
(g328
g3
NtRp812
(dp813
g331
(lp814
g436
asg22
I00
sg13
S'NAME8PCKSS'
p815
sg343
I0
sg344
(lp816
sbag597
ag739
ag480
asg21
g781
sg495
F33108.599999999999
sbsS'IDXAFKCD'
p817
(ideepThought.ORM.ORM
Task
p818
(dp819
g88
F5728.9411978404078
sg89
I36000
sg90
(lp820
sg13
S''
sg92
(lp821
I10702
aI632
aI16188
aI12325
aI11935
aI10702
aI14531
aI10110
aI11966
aI12508
aI10663
aI622
aI10708
aI10951
aI10190
aI14743
aI10644
aI11162
aI10856
aI10692
aI10682
aI10683
aI10589
aI12325
aI12242
aI10538
aI11277
asg94
F39
sg95
I2
sg96
Nsg97
Nsg98
(lp822
g1
(g328
g3
NtRp823
(dp824
g331
(lp825
g172
ag151
ag194
ag106
ag211
ag244
ag181
asg22
I00
sg13
S'NAME1FNOAK'
p826
sg343
I0
sg344
(lp827
sbag1
(g328
g3
NtRp828
(dp829
g331
(lp830
g318
ag151
ag194
ag296
ag275
ag305
ag106
ag211
ag244
asg22
I00
sg13
S'NAMEDPL53U'
p831
sg343
I0
sg344
(lp832
sbag1
(g328
g3
NtRp833
(dp834
g331
(lp835
g333
ag151
ag194
ag106
ag211
asg22
I00
sg13
S'NAMEXN8UPZ'
p836
sg343
I0
sg344
(lp837
sbag1
(g328
g3
NtRp838
(dp839
g331
(lp840
g349
ag151
ag194
ag106
ag211
ag362
asg22
I00
sg13
S'NAMEN9P4HR'
p841
sg343
I0
sg344
(lp842
sbag1
(g328
g3
NtRp843
(dp844
g331
(lp845
g380
ag151
ag194
ag106
ag211
asg22
I00
sg13
S'NAMEGCNIB6'
p846
sg343
I0
sg344
(lp847
sbag391
ag418
ag1
(g328
g3
NtRp848
(dp849
g331
(lp850
g436
asg22
I00
sg13
S'NAMEENED0P'
p851
sg343
I0
sg344
(lp852
sbag544
ag462
ag480
asg21
g817
sg495
F7793.5897435897432
sbsS'IDC4WO2H'
p853
(ideepThought.ORM.ORM
Task
p854
(dp855
g88
F807.61625238173053
sg89
I36000
sg90
(lp856
sg13
S''
sg92
(lp857
sg94
F10
sg95
I2
sg96
Nsg97
Nsg98
(lp858
g1
(g328
g3
NtRp859
(dp860
g331
(lp861
g172
ag151
ag194
ag106
ag211
ag244
ag181
asg22
I00
sg13
S'NAMEKGLZ2K'
p862
sg343
I0
sg344
(lp863
sbag1
(g328
g3
NtRp864
(dp865
g331
(lp866
g318
ag151
ag194
ag296
ag275
ag305
ag106
ag211
ag244
asg22
I00
sg13
S'NAMEJX6R71'
p867
sg343
I0
sg344
(lp868
sbag1
(g328
g3
NtRp869
(dp870
g331
(lp871
g333
ag151
ag194
ag106
ag211
asg22
I00
sg13
S'NAMEV67QGM'
p872
sg343
I0
sg344
(lp873
sbag1
(g328
g3
NtRp874
(dp875
g331
(lp876
g349
ag151
ag194
ag106
ag211
ag362
asg22
I00
sg13
S'NAMEJ9RBSD'
p877
sg343
I0
sg344
(lp878
sbag1
(g328
g3
NtRp879
(dp880
g331
(lp881
g380
ag151
ag194
ag106
ag211
asg22
I00
sg13
S'NAMEKPGHMT'
p882
sg343
I0
sg344
(lp883
sbag644
ag650
ag1
(g328
g3
NtRp884
(dp885
g331
(lp886
g436
asg22
I00
sg13
S'NAMEL65F6L'
p887
sg343
I0
sg344
(lp888
sbag544
ag739
ag480
asg21
g853
sg495
F543.70000000000005
sbsS'IDCRX5R5'
p889
(ideepThought.ORM.ORM
Task
p890
(dp891
g88
F10866.61778320862
sg89
I-1
sg90
(lp892
sg13
S''
sg92
(lp893
I22944
aI22952
aI22964
aI22974
asg94
F34
sg95
I2
sg96
Nsg97
Nsg98
(lp894
g1
(g328
g3
NtRp895
(dp896
g331
(lp897
g172
ag151
ag194
ag106
ag211
ag244
ag181
ag476
asg22
I00
sg13
S'NAMEGKW1NS'
p898
sg343
I0
sg344
(lp899
sbag561
ag1
(g328
g3
NtRp900
(dp901
g331
(lp902
g333
ag151
ag194
ag106
ag211
ag476
asg22
I00
sg13
S'NAMEC73CSB'
p903
sg343
I0
sg344
(lp904
sbag1
(g328
g3
NtRp905
(dp906
g331
(lp907
g349
ag151
ag194
ag106
ag211
ag362
ag476
asg22
I00
sg13
S'NAMESUOQXA'
p908
sg343
I0
sg344
(lp909
sbag1
(g328
g3
NtRp910
(dp911
g331
(lp912
g380
ag151
ag194
ag106
ag211
ag476
asg22
I00
sg13
S'NAMEKTOU4K'
p913
sg343
I0
sg344
(lp914
sbag1
(g328
g3
NtRp915
(dp916
g331
(lp917
g396
ag476
asg22
I00
sg13
S'NAMEQIZVIB'
p918
sg343
I0
sg344
(lp919
sbag1
(g328
g3
NtRp920
(dp921
g331
(lp922
g423
ag476
asg22
I00
sg13
S'NAMEDJOBNH'
p923
sg343
I0
sg344
(lp924
sbag1
(g328
g3
NtRp925
(dp926
g331
(lp927
g436
ag476
asg22
I00
sg13
S'NAMEF0UXF6'
p928
sg343
I0
sg344
(lp929
sbag544
ag1
(g328
g3
NtRp930
(dp931
g331
(lp932
g467
ag476
asg22
I00
sg13
S'NAMEYO4ZMS'
p933
sg343
I0
sg344
(lp934
sbag1
(g328
g3
NtRp935
(dp936
g331
(lp937
g485
ag194
ag476
asg22
I00
sg13
S'NAMEIKEAJZ'
p938
sg343
I0
sg344
(lp939
sbag48
asg21
g889
sg495
F7733.1176470588234
sbsS'IDWI48BZ'
p940
(ideepThought.ORM.ORM
Task
p941
(dp942
g88
F176.4922409374166
sg89
I3600
sg90
(lp943
sg13
S''
sg92
(lp944
sg94
F10
sg95
I2
sg96
Nsg97
Nsg98
(lp945
g1
(g10
g3
NtRp946
(dp947
g13
S'IDJA9QW6'
p948
sg15
I1
sg16
(lp949
sg18
I1
sg19
(lp950
g172
ag181
ag194
ag211
ag244
ag106
ag151
ag405
ag414
asg21
S'ID84WWYM'
p951
sg22
I00
sbag1
(g328
g3
NtRp952
(dp953
g331
(lp954
g1
(g105
g3
NtRp955
(dp956
g108
(lp957
g1
(g110
g3
NtRp958
(dp959
g21
S'IDZSGDRC'
p960
sg114
S''
sg13
S'NAME0QO1VE'
p961
sbasg148
S'IDYZMTC2'
p962
sg21
S'IDAYNOZN'
p963
sg13
S''
sbag151
ag194
ag106
ag211
ag244
ag181
ag405
asg22
I00
sg13
S'NAMERDJSZ6'
p964
sg343
I0
sg344
(lp965
sbag1
(g10
g3
NtRp966
(dp967
g13
S'IDXGXD3E'
p968
sg15
I1
sg16
(lp969
sg18
I1
sg19
(lp970
g305
ag318
ag194
ag211
ag244
ag275
ag106
ag296
ag151
ag405
ag414
asg21
S'IDJM5MV5'
p971
sg22
I00
sbag1
(g328
g3
NtRp972
(dp973
g331
(lp974
g1
(g105
g3
NtRp975
(dp976
g108
(lp977
g1
(g110
g3
NtRp978
(dp979
g21
S'IDRPXKU2'
p980
sg114
S''
sg13
S'NAMEODWNRN'
p981
sbasg148
S'IDJBSDK5'
p982
sg21
S'ID8E7HCI'
p983
sg13
S''
sbag151
ag194
ag296
ag275
ag305
ag106
ag211
ag244
ag405
asg22
I00
sg13
S'NAMEGAOU2X'
p984
sg343
I0
sg344
(lp985
sbag1
(g328
g3
NtRp986
(dp987
g331
(lp988
g1
(g105
g3
NtRp989
(dp990
g108
(lp991
g1
(g110
g3
NtRp992
(dp993
g21
S'ID8L76BI'
p994
sg114
S''
sg13
S'NAMEZSXL5C'
p995
sbag1
(g110
g3
NtRp996
(dp997
g21
S'IDGLM5WM'
p998
sg114
S''
sg13
S'NAMEU4YTO3'
p999
sbasg148
S'ID1RTPU3'
p1000
sg21
S'IDK7Z4QE'
p1001
sg13
S''
sbag151
ag194
ag106
ag211
ag405
asg22
I00
sg13
S'NAMEY4CKH6'
p1002
sg343
I0
sg344
(lp1003
sbag1
(g328
g3
NtRp1004
(dp1005
g331
(lp1006
g1
(g105
g3
NtRp1007
(dp1008
g108
(lp1009
g1
(g110
g3
NtRp1010
(dp1011
g21
S'IDSNS6EG'
p1012
sg114
S''
sg13
S'NAME43ATO3'
p1013
sbasg148
S'ID1FNX1R'
p1014
sg21
S'IDH0O4RB'
p1015
sg13
S''
sbag405
asg22
I00
sg13
S'NAMEJOGZ18'
p1016
sg343
I0
sg344
(lp1017
sbag1
(g328
g3
NtRp1018
(dp1019
g331
(lp1020
g1
(g105
g3
NtRp1021
(dp1022
g108
(lp1023
g1
(g110
g3
NtRp1024
(dp1025
g21
S'IDUYFKNS'
p1026
sg114
S''
sg13
S'NAME43OHSB'
p1027
sbasg148
S'IDAI3BRG'
p1028
sg21
S'IDFGQ7AJ'
p1029
sg13
S''
sbag151
ag194
ag106
ag211
ag405
asg22
I00
sg13
S'NAMEXB172L'
p1030
sg343
I0
sg344
(lp1031
sbag1
(g10
g3
NtRp1032
(dp1033
g13
S'IDDKTSR2'
p1034
sg15
I0
sg16
(lp1035
sg18
I0
sg19
(lp1036
g396
ag265
ag405
ag408
ag411
ag414
asg21
S'IDYZX4AI'
p1037
sg22
I00
sbag1
(g10
g3
NtRp1038
(dp1039
g13
S'ID5DDHG8'
p1040
sg15
I0
sg16
(lp1041
sg18
I0
sg19
(lp1042
g423
ag265
ag405
ag408
ag411
ag414
asg21
S'IDJRC7RP'
p1043
sg22
I00
sbag1
(g328
g3
NtRp1044
(dp1045
g331
(lp1046
g436
ag405
asg22
I00
sg13
S'NAME7PHS3W'
p1047
sg343
I0
sg344
(lp1048
sbag1
(g10
g3
NtRp1049
(dp1050
g13
S'IDQUU0QH'
p1051
sg15
I0
sg16
(lp1052
sg18
I0
sg19
(lp1053
g452
ag405
asg21
S'IDVOG4GV'
p1054
sg22
I00
sbag1
(g328
g3
NtRp1055
(dp1056
g331
(lp1057
g1
(g105
g3
NtRp1058
(dp1059
g108
(lp1060
g1
(g110
g3
NtRp1061
(dp1062
g21
S'ID99RRXF'
p1063
sg114
S''
sg13
S'NAMEUYDEBU'
p1064
sbasg148
S'ID0QBTXN'
p1065
sg21
S'IDXW4BBD'
p1066
sg13
S''
sbag405
asg22
I00
sg13
S'NAMER3N3VG'
p1067
sg343
I0
sg344
(lp1068
sbag1
(g328
g3
NtRp1069
(dp1070
g331
(lp1071
g1
(g105
g3
NtRp1072
(dp1073
g108
(lp1074
g1
(g110
g3
NtRp1075
(dp1076
g21
S'IDS53ZX4'
p1077
sg114
S''
sg13
S'NAMEPV6UEV'
p1078
sbasg148
S'IDPD9PR7'
p1079
sg21
S'IDBW45FA'
p1080
sg13
S''
sbag151
ag194
ag211
ag405
asg22
I00
sg13
S'NAMEP0ESK5'
p1081
sg343
I0
sg344
(lp1082
sbag1
(g328
g3
NtRp1083
(dp1084
g331
(lp1085
g1
(g105
g3
NtRp1086
(dp1087
g108
(lp1088
g1
(g110
g3
NtRp1089
(dp1090
g21
S'IDODGFMY'
p1091
sg114
S''
sg13
S'NAMEOFXKAX'
p1092
sbasg148
S'ID8IHS1N'
p1093
sg21
S'IDM26PXK'
p1094
sg13
S''
sbag151
ag194
ag106
ag211
ag405
asg22
I00
sg13
S'NAMEQIXXH0'
p1095
sg343
I0
sg344
(lp1096
sbag1
(g328
g3
NtRp1097
(dp1098
g331
(lp1099
g1
(g105
g3
NtRp1100
(dp1101
g108
(lp1102
g1
(g110
g3
NtRp1103
(dp1104
g21
S'IDAF9UWA'
p1105
sg114
S''
sg13
S'NAME5V1ATQ'
p1106
sbasg148
S'ID39FB8U'
p1107
sg21
S'IDT9W9F3'
p1108
sg13
S''
sbag151
ag194
ag106
ag211
ag405
asg22
I00
sg13
S'NAME70HLES'
p1109
sg343
I0
sg344
(lp1110
sbag1
(g328
g3
NtRp1111
(dp1112
g331
(lp1113
g1
(g105
g3
NtRp1114
(dp1115
g108
(lp1116
g1
(g110
g3
NtRp1117
(dp1118
g21
S'IDB89ZN8'
p1119
sg114
S''
sg13
S'NAMEF2963E'
p1120
sbasg148
S'ID6TMPVL'
p1121
sg21
S'IDM69OJ5'
p1122
sg13
S''
sbag151
ag194
ag106
ag211
ag405
asg22
I00
sg13
S'NAMEWF67TU'
p1123
sg343
I0
sg344
(lp1124
sbag1
(g328
g3
NtRp1125
(dp1126
g331
(lp1127
g485
ag194
ag405
asg22
I00
sg13
S'NAMEB82QCI'
p1128
sg343
I0
sg344
(lp1129
sbag72
asg21
g940
sg495
F154.20000000000002
sbsS'IDBF1XGX'
p1130
(ideepThought.ORM.ORM
Task
p1131
(dp1132
g88
F184.35569801829524
sg89
I1800
sg90
(lp1133
sg13
S''
sg92
(lp1134
sg94
F19
sg95
I2
sg96
Nsg97
Nsg98
(lp1135
g1
(g328
g3
NtRp1136
(dp1137
g331
(lp1138
g172
ag151
ag194
ag106
ag211
ag244
ag181
asg22
I00
sg13
S'NAME5KS937'
p1139
sg343
I0
sg344
(lp1140
sbag1
(g328
g3
NtRp1141
(dp1142
g331
(lp1143
g318
ag151
ag194
ag296
ag275
ag305
ag106
ag211
ag244
asg22
I00
sg13
S'NAMEV4DVRY'
p1144
sg343
I0
sg344
(lp1145
sbag1
(g328
g3
NtRp1146
(dp1147
g331
(lp1148
g333
ag151
ag194
ag106
ag211
asg22
I00
sg13
S'NAME5L9YHT'
p1149
sg343
I0
sg344
(lp1150
sbag1
(g328
g3
NtRp1151
(dp1152
g331
(lp1153
g349
ag151
ag194
ag106
ag211
ag362
asg22
I00
sg13
S'NAMEGUXZPF'
p1154
sg343
I0
sg344
(lp1155
sbag1
(g328
g3
NtRp1156
(dp1157
g331
(lp1158
g380
ag151
ag194
ag106
ag211
asg22
I00
sg13
S'NAME6IOW9C'
p1159
sg343
I0
sg344
(lp1160
sbag644
ag650
ag1
(g328
g3
NtRp1161
(dp1162
g331
(lp1163
g436
asg22
I00
sg13
S'NAMEY5T81M'
p1164
sg343
I0
sg344
(lp1165
sbag697
ag462
ag480
asg21
g1130
sg495
F298.36842105263156
sbsS'IDDTCF8W'
p1166
(ideepThought.ORM.ORM
Task
p1167
(dp1168
g88
F1997.8895400101571
sg89
I21600
sg90
(lp1169
sg13
S''
sg92
(lp1170
I2511
aI2583
aI5880
aI72
asg94
F34
sg95
I2
sg96
Nsg97
Nsg98
(lp1171
g1
(g328
g3
NtRp1172
(dp1173
g331
(lp1174
g172
ag151
ag194
ag106
ag211
ag244
ag181
asg22
I00
sg13
S'NAMEZV9NLA'
p1175
sg343
I0
sg344
(lp1176
sbag1
(g328
g3
NtRp1177
(dp1178
g331
(lp1179
g318
ag151
ag194
ag296
ag275
ag305
ag106
ag211
ag244
asg22
I00
sg13
S'NAMEN4OMBA'
p1180
sg343
I0
sg344
(lp1181
sbag1
(g328
g3
NtRp1182
(dp1183
g331
(lp1184
g333
ag151
ag194
ag106
ag211
asg22
I00
sg13
S'NAMERDP6RU'
p1185
sg343
I0
sg344
(lp1186
sbag1
(g328
g3
NtRp1187
(dp1188
g331
(lp1189
g349
ag151
ag194
ag106
ag211
ag362
asg22
I00
sg13
S'NAMEP7BDQ2'
p1190
sg343
I0
sg344
(lp1191
sbag1
(g328
g3
NtRp1192
(dp1193
g331
(lp1194
g380
ag151
ag194
ag106
ag211
asg22
I00
sg13
S'NAME9MPTUI'
p1195
sg343
I0
sg344
(lp1196
sbag527
ag533
ag1
(g328
g3
NtRp1197
(dp1198
g331
(lp1199
g436
asg22
I00
sg13
S'NAME58X849'
p1200
sg343
I0
sg344
(lp1201
sbag447
ag462
ag480
asg21
g1166
sg495
F2214.1470588235293
sbsS'ID48JL0P'
p1202
(ideepThought.ORM.ORM
Task
p1203
(dp1204
g88
F0
sg89
I-1
sg90
(lp1205
sg13
S''
sg92
(lp1206
sg94
F2
sg95
I2
sg96
Nsg97
Nsg98
(lp1207
g1
(g328
g3
NtRp1208
(dp1209
g331
(lp1210
g172
ag151
ag194
ag106
ag211
ag244
ag181
ag414
asg22
I00
sg13
S'NAMEOIB8SZ'
p1211
sg343
I0
sg344
(lp1212
sbag1
(g328
g3
NtRp1213
(dp1214
g331
(lp1215
g955
ag151
ag194
ag106
ag211
ag244
ag181
ag414
asg22
I00
sg13
S'NAMEEKI2OR'
p1216
sg343
I0
sg344
(lp1217
sbag1
(g328
g3
NtRp1218
(dp1219
g331
(lp1220
g318
ag151
ag194
ag296
ag275
ag305
ag106
ag211
ag244
ag414
asg22
I00
sg13
S'NAMEIW5Q1S'
p1221
sg343
I0
sg344
(lp1222
sbag1
(g328
g3
NtRp1223
(dp1224
g331
(lp1225
g975
ag151
ag194
ag296
ag275
ag305
ag106
ag211
ag244
ag414
asg22
I00
sg13
S'NAMERP4AHS'
p1226
sg343
I0
sg344
(lp1227
sbag1
(g328
g3
NtRp1228
(dp1229
g331
(lp1230
g989
ag151
ag194
ag106
ag211
ag414
asg22
I00
sg13
S'NAME6SCZB4'
p1231
sg343
I0
sg344
(lp1232
sbag1
(g328
g3
NtRp1233
(dp1234
g331
(lp1235
g1007
ag414
asg22
I00
sg13
S'NAMEB0H0BX'
p1236
sg343
I0
sg344
(lp1237
sbag1
(g328
g3
NtRp1238
(dp1239
g331
(lp1240
g1021
ag151
ag194
ag106
ag211
ag414
asg22
I00
sg13
S'NAMEDBPJ7X'
p1241
sg343
I0
sg344
(lp1242
sbag1032
ag1038
ag1
(g328
g3
NtRp1243
(dp1244
g331
(lp1245
g436
ag414
asg22
I00
sg13
S'NAME10MVBU'
p1246
sg343
I0
sg344
(lp1247
sbag1
(g10
g3
NtRp1248
(dp1249
g13
S'IDYSP6E4'
p1250
sg15
I0
sg16
(lp1251
sg18
I0
sg19
(lp1252
g452
ag414
asg21
S'IDZG7NGV'
p1253
sg22
I00
sbag1
(g328
g3
NtRp1254
(dp1255
g331
(lp1256
g1058
ag414
asg22
I00
sg13
S'NAME9O409H'
p1257
sg343
I0
sg344
(lp1258
sbag1
(g328
g3
NtRp1259
(dp1260
g331
(lp1261
g1072
ag151
ag194
ag211
ag414
asg22
I00
sg13
S'NAMEVJU5E4'
p1262
sg343
I0
sg344
(lp1263
sbag1
(g328
g3
NtRp1264
(dp1265
g331
(lp1266
g1086
ag151
ag194
ag106
ag211
ag414
asg22
I00
sg13
S'NAME2URRBX'
p1267
sg343
I0
sg344
(lp1268
sbag1
(g328
g3
NtRp1269
(dp1270
g331
(lp1271
g1100
ag151
ag194
ag106
ag211
ag414
asg22
I00
sg13
S'NAMESY6Z15'
p1272
sg343
I0
sg344
(lp1273
sbag1
(g328
g3
NtRp1274
(dp1275
g331
(lp1276
g1114
ag151
ag194
ag106
ag211
ag414
asg22
I00
sg13
S'NAME76SIO7'
p1277
sg343
I0
sg344
(lp1278
sbag1
(g328
g3
NtRp1279
(dp1280
g331
(lp1281
g485
ag194
ag414
asg22
I00
sg13
S'NAMEC190B4'
p1282
sg343
I0
sg344
(lp1283
sbag11
asg21
g1202
sg495
F10
sbsS'IDCPD7Y9'
p1284
(ideepThought.ORM.ORM
Task
p1285
(dp1286
g88
F3377.122858502255
sg89
I28800
sg90
(lp1287
sg13
S''
sg92
(lp1288
I12483
aI4142
aI6006
aI3346
aI3280
aI3521
aI7161
aI3257
aI3212
aI4140
aI3362
aI6846
aI6940
aI4573
aI6592
aI7210
aI8239
aI2575
aI3580
aI3044
aI3449
aI3351
aI4067
aI7598
aI4328
aI6777
aI3404
aI3357
aI7903
aI2550
aI3544
asg94
F48
sg95
I2
sg96
Nsg97
Nsg98
(lp1289
g1
(g328
g3
NtRp1290
(dp1291
g331
(lp1292
g172
ag151
ag194
ag106
ag211
ag244
ag181
asg22
I00
sg13
S'NAME2TXO5C'
p1293
sg343
I0
sg344
(lp1294
sbag1
(g328
g3
NtRp1295
(dp1296
g331
(lp1297
g318
ag151
ag194
ag296
ag275
ag305
ag106
ag211
ag244
asg22
I00
sg13
S'NAMENAYRMB'
p1298
sg343
I0
sg344
(lp1299
sbag1
(g328
g3
NtRp1300
(dp1301
g331
(lp1302
g333
ag151
ag194
ag106
ag211
asg22
I00
sg13
S'NAMEJSXYJA'
p1303
sg343
I0
sg344
(lp1304
sbag1
(g328
g3
NtRp1305
(dp1306
g331
(lp1307
g349
ag151
ag194
ag106
ag211
ag362
asg22
I00
sg13
S'NAMEZ92GPS'
p1308
sg343
I0
sg344
(lp1309
sbag1
(g328
g3
NtRp1310
(dp1311
g331
(lp1312
g380
ag151
ag194
ag106
ag211
asg22
I00
sg13
S'NAMEII60CV'
p1313
sg343
I0
sg344
(lp1314
sbag391
ag418
ag1
(g328
g3
NtRp1315
(dp1316
g331
(lp1317
g436
asg22
I00
sg13
S'NAMEA30O9V'
p1318
sg343
I0
sg344
(lp1319
sbag447
ag462
ag480
asg21
g1284
sg495
F5239.9166666666661
sbsS'IDKGBAOW'
p1320
(ideepThought.ORM.ORM
Task
p1321
(dp1322
g88
F2391.9767770296639
sg89
I14400
sg90
(lp1323
sg13
S''
sg92
(lp1324
I6575
aI5087
aI328
aI323
aI276
aI5235
asg94
F38
sg95
I2
sg96
Nsg97
Nsg98
(lp1325
g1
(g328
g3
NtRp1326
(dp1327
g331
(lp1328
g172
ag151
ag194
ag106
ag211
ag244
ag181
asg22
I00
sg13
S'NAMELMEMPM'
p1329
sg343
I0
sg344
(lp1330
sbag1
(g328
g3
NtRp1331
(dp1332
g331
(lp1333
g318
ag151
ag194
ag296
ag275
ag305
ag106
ag211
ag244
asg22
I00
sg13
S'NAME0DL7RK'
p1334
sg343
I0
sg344
(lp1335
sbag1
(g328
g3
NtRp1336
(dp1337
g331
(lp1338
g333
ag151
ag194
ag106
ag211
asg22
I00
sg13
S'NAMETE4GMO'
p1339
sg343
I0
sg344
(lp1340
sbag1
(g328
g3
NtRp1341
(dp1342
g331
(lp1343
g349
ag151
ag194
ag106
ag211
ag362
asg22
I00
sg13
S'NAMEH5Y7X2'
p1344
sg343
I0
sg344
(lp1345
sbag1
(g328
g3
NtRp1346
(dp1347
g331
(lp1348
g380
ag151
ag194
ag106
ag211
asg22
I00
sg13
S'NAME0G9NLT'
p1349
sg343
I0
sg344
(lp1350
sbag527
ag1
(g10
g3
NtRp1351
(dp1352
g13
S'ID6XL796'
p1353
sg15
I0
sg16
(lp1354
sg18
I0
sg19
(lp1355
g423
ag265
ag408
ag411
asg21
S'ID3PNC0L'
p1356
sg22
I00
sbag1
(g328
g3
NtRp1357
(dp1358
g331
(lp1359
g436
asg22
I00
sg13
S'NAMESRAWOS'
p1360
sg343
I0
sg344
(lp1361
sbag1
(g10
g3
NtRp1362
(dp1363
g13
S'IDMKZNTJ'
p1364
sg15
I0
sg16
(lp1365
sg18
I0
sg19
(lp1366
g452
ag265
ag408
ag411
asg21
S'IDYHG56U'
p1367
sg22
I00
sbag462
ag480
asg21
g1320
sg495
F2362.2631578947367
sbsS'IDJNZA9B'
p1368
(ideepThought.ORM.ORM
Task
p1369
(dp1370
g88
F816.82311220891359
sg89
I-1
sg90
(lp1371
sg13
S''
sg92
(lp1372
sg94
F35
sg95
I2
sg96
Nsg97
Nsg98
(lp1373
g1
(g10
g3
NtRp1374
(dp1375
g13
S'IDKFA5ZX'
p1376
sg15
I1
sg16
(lp1377
sg18
I1
sg19
(lp1378
g211
ag244
ag106
ag151
ag172
ag181
ag194
ag476
asg21
S'IDZJ2MG4'
p1379
sg22
I00
sbag561
ag1
(g328
g3
NtRp1380
(dp1381
g331
(lp1382
g333
ag151
ag194
ag106
ag211
asg22
I00
sg13
S'NAMEQMDC3L'
p1383
sg343
I0
sg344
(lp1384
sbag1
(g328
g3
NtRp1385
(dp1386
g331
(lp1387
g349
ag151
ag194
ag106
ag211
ag362
asg22
I00
sg13
S'NAMEYPB3VH'
p1388
sg343
I0
sg344
(lp1389
sbag1
(g10
g3
NtRp1390
(dp1391
g13
S'IDXF9GMK'
p1392
sg15
I0
sg16
(lp1393
sg18
I0
sg19
(lp1394
g106
ag194
ag151
ag380
ag211
ag265
ag476
ag408
ag411
asg21
S'IDRXGS3K'
p1395
sg22
I00
sbag1032
ag1
(g10
g3
NtRp1396
(dp1397
g13
S'IDWOBP6Z'
p1398
sg15
I0
sg16
(lp1399
sg18
I0
sg19
(lp1400
g423
ag265
ag405
ag408
ag411
ag414
asg21
S'ID9MSA6E'
p1401
sg22
I00
sbag1
(g10
g3
NtRp1402
(dp1403
g13
S'IDMY6OYT'
p1404
sg15
I0
sg16
(lp1405
sg18
I0
sg19
(lp1406
g436
ag265
ag476
ag408
ag411
asg21
S'IDTQP84N'
p1407
sg22
I00
sbag1
(g10
g3
NtRp1408
(dp1409
g13
S'IDGJI7MK'
p1410
sg15
I0
sg16
(lp1411
sg18
I0
sg19
(lp1412
g452
ag265
ag408
asg21
S'IDKH1IX4'
p1413
sg22
I00
sbag462
ag480
asg21
g1368
sg495
F561.65714285714284
sbsS'IDFLW4TF'
p1414
(ideepThought.ORM.ORM
Task
p1415
(dp1416
g88
F16317.464304041981
sg89
I57600
sg90
(lp1417
sg13
S''
sg92
(lp1418
I74
aI30305
aI32426
aI82
aI33959
aI28840
aI36133
aI30145
aI33893
aI32502
aI34042
aI32594
aI424
aI426
aI39132
aI401
aI31173
aI32542
aI28137
aI29572
aI40644
aI33447
aI29072
aI44359
aI29324
aI40607
aI30281
aI37788
aI28119
aI29633
aI34000
aI28104
aI41311
aI28887
aI420
aI29735
aI28984
aI33818
aI28901
aI32665
aI33570
aI623
aI33708
aI622
aI56977
asg94
F76
sg95
I2
sg96
Nsg97
Nsg98
(lp1419
g1
(g10
g3
NtRp1420
(dp1421
g13
S'IDBU9FGI'
p1422
sg15
I1
sg16
(lp1423
sg18
I1
sg19
(lp1424
g172
ag181
ag194
ag211
ag244
ag106
ag151
ag408
asg21
S'ID0GUCUM'
p1425
sg22
I00
sbag1
(g10
g3
NtRp1426
(dp1427
g13
S'IDA30ZPB'
p1428
sg15
I1
sg16
(lp1429
sg18
I1
sg19
(lp1430
g151
ag305
ag318
ag194
ag211
ag244
ag275
ag106
ag296
ag408
asg21
S'ID6W1ZLH'
p1431
sg22
I00
sbag1
(g328
g3
NtRp1432
(dp1433
g331
(lp1434
g333
ag151
ag194
ag106
ag211
ag408
asg22
I00
sg13
S'NAME8OWJXE'
p1435
sg343
I0
sg344
(lp1436
sbag1
(g328
g3
NtRp1437
(dp1438
g331
(lp1439
g349
ag151
ag194
ag106
ag211
ag362
ag408
asg22
I00
sg13
S'NAME3DNPR5'
p1440
sg343
I0
sg344
(lp1441
sbag1
(g328
g3
NtRp1442
(dp1443
g331
(lp1444
g380
ag151
ag194
ag106
ag211
ag408
asg22
I00
sg13
S'NAME0T1YA5'
p1445
sg343
I0
sg344
(lp1446
sbag391
ag418
ag1
(g328
g3
NtRp1447
(dp1448
g331
(lp1449
g436
ag408
asg22
I00
sg13
S'NAMEVE5HO5'
p1450
sg343
I0
sg344
(lp1451
sbag597
ag462
ag480
ag60
asg21
g1414
sg495
F20867.421052631576
sbsS'ID8MD1GP'
p1452
(ideepThought.ORM.ORM
Task
p1453
(dp1454
g88
F7680.7597136857848
sg89
I36000
sg90
(lp1455
sg13
S''
sg92
(lp1456
I44252
aI400
aI22109
aI13364
aI21363
aI421
aI15671
aI15153
aI17142
aI36003
aI17149
aI13858
aI14016
aI14077
aI14488
aI14348
aI14019
aI16277
aI22432
aI656
aI19491
aI16292
aI13923
aI13688
aI14903
aI14251
aI14505
aI74
aI14721
aI418
aI19314
aI13788
aI13791
aI628
aI15971
aI15926
aI14160
aI16280
aI23461
asg94
F60
sg95
I2
sg96
Nsg97
Nsg98
(lp1457
g1420
ag1426
ag1
(g328
g3
NtRp1458
(dp1459
g331
(lp1460
g333
ag151
ag194
ag106
ag211
ag408
asg22
I00
sg13
S'NAMEO2NJIX'
p1461
sg343
I0
sg344
(lp1462
sbag1
(g328
g3
NtRp1463
(dp1464
g331
(lp1465
g349
ag151
ag194
ag106
ag211
ag362
ag408
asg22
I00
sg13
S'NAME9NMQY0'
p1466
sg343
I0
sg344
(lp1467
sbag1
(g328
g3
NtRp1468
(dp1469
g331
(lp1470
g380
ag151
ag194
ag106
ag211
ag408
asg22
I00
sg13
S'NAMEHDDKRN'
p1471
sg343
I0
sg344
(lp1472
sbag1032
ag1396
ag1
(g328
g3
NtRp1473
(dp1474
g331
(lp1475
g436
ag408
asg22
I00
sg13
S'NAMEFUDAP7'
p1476
sg343
I0
sg344
(lp1477
sbag544
ag462
ag480
ag60
asg21
g1452
sg495
F10991.483333333334
sbsS'IDBHOGF9'
p1478
(ideepThought.ORM.ORM
Task
p1479
(dp1480
g88
F12938.242380424928
sg89
I36000
sg90
(lp1481
sg13
S''
sg92
(lp1482
I27117
aI27278
aI28471
aI28401
aI27377
aI28553
asg94
F31
sg95
I2
sg96
Nsg97
Nsg98
(lp1483
g1
(g328
g3
NtRp1484
(dp1485
g331
(lp1486
g172
ag151
ag194
ag106
ag211
ag244
ag181
asg22
I00
sg13
S'NAMEL1GGZQ'
p1487
sg343
I0
sg344
(lp1488
sbag1
(g328
g3
NtRp1489
(dp1490
g331
(lp1491
g318
ag151
ag194
ag296
ag275
ag305
ag106
ag211
ag244
asg22
I00
sg13
S'NAME4AFIOJ'
p1492
sg343
I0
sg344
(lp1493
sbag1
(g328
g3
NtRp1494
(dp1495
g331
(lp1496
g333
ag151
ag194
ag106
ag211
asg22
I00
sg13
S'NAMEWS4130'
p1497
sg343
I0
sg344
(lp1498
sbag1
(g328
g3
NtRp1499
(dp1500
g331
(lp1501
g349
ag151
ag194
ag106
ag211
ag362
asg22
I00
sg13
S'NAMES7GNRD'
p1502
sg343
I0
sg344
(lp1503
sbag1
(g328
g3
NtRp1504
(dp1505
g331
(lp1506
g380
ag151
ag194
ag106
ag211
asg22
I00
sg13
S'NAME2DI9Q0'
p1507
sg343
I0
sg344
(lp1508
sbag527
ag1351
ag1
(g328
g3
NtRp1509
(dp1510
g331
(lp1511
g436
asg22
I00
sg13
S'NAME9Y2G5A'
p1512
sg343
I0
sg344
(lp1513
sbag1
(g10
g3
NtRp1514
(dp1515
g13
S'IDS45RQJ'
p1516
sg15
I0
sg16
(lp1517
sg18
I0
sg19
(lp1518
g452
ag265
ag476
ag408
asg21
S'IDJ5S2F6'
p1519
sg22
I00
sbag462
ag480
asg21
g1478
sg495
F17308.193548387095
sbsS'IDZE2X66'
p1520
(ideepThought.ORM.ORM
Task
p1521
(dp1522
g88
F3173.6677233051223
sg89
I21600
sg90
(lp1523
sg13
S''
sg92
(lp1524
I2758
aI8611
aI8523
aI2694
aI7934
aI8126
asg94
F40
sg95
I2
sg96
Nsg97
Nsg98
(lp1525
g1
(g328
g3
NtRp1526
(dp1527
g331
(lp1528
g172
ag151
ag194
ag106
ag211
ag244
ag181
asg22
I00
sg13
S'NAME7N8T7G'
p1529
sg343
I0
sg344
(lp1530
sbag1
(g328
g3
NtRp1531
(dp1532
g331
(lp1533
g318
ag151
ag194
ag296
ag275
ag305
ag106
ag211
ag244
asg22
I00
sg13
S'NAMEA9Y9AL'
p1534
sg343
I0
sg344
(lp1535
sbag1
(g328
g3
NtRp1536
(dp1537
g331
(lp1538
g333
ag151
ag194
ag106
ag211
asg22
I00
sg13
S'NAMETU1XT3'
p1539
sg343
I0
sg344
(lp1540
sbag1
(g328
g3
NtRp1541
(dp1542
g331
(lp1543
g349
ag151
ag194
ag106
ag211
ag362
asg22
I00
sg13
S'NAMEPF9MP3'
p1544
sg343
I0
sg344
(lp1545
sbag1
(g328
g3
NtRp1546
(dp1547
g331
(lp1548
g380
ag151
ag194
ag106
ag211
asg22
I00
sg13
S'NAME4G0LU9'
p1549
sg343
I0
sg344
(lp1550
sbag644
ag650
ag1
(g328
g3
NtRp1551
(dp1552
g331
(lp1553
g436
asg22
I00
sg13
S'NAMEYYDYP0'
p1554
sg343
I0
sg344
(lp1555
sbag447
ag462
ag480
asg21
g1520
sg495
F3964.0500000000002
sbsS'ID76JOAI'
p1556
(ideepThought.ORM.ORM
Task
p1557
(dp1558
g88
F9745.1458508605938
sg89
I36000
sg90
(lp1559
sg13
S''
sg92
(lp1560
sg94
F11
sg95
I2
sg96
Nsg97
Nsg98
(lp1561
g1
(g328
g3
NtRp1562
(dp1563
g331
(lp1564
g172
ag151
ag194
ag106
ag211
ag244
ag181
asg22
I00
sg13
S'NAMESZ7IKR'
p1565
sg343
I0
sg344
(lp1566
sbag1
(g328
g3
NtRp1567
(dp1568
g331
(lp1569
g318
ag151
ag194
ag296
ag275
ag305
ag106
ag211
ag244
asg22
I00
sg13
S'NAME31Y51S'
p1570
sg343
I0
sg344
(lp1571
sbag1
(g328
g3
NtRp1572
(dp1573
g331
(lp1574
g333
ag151
ag194
ag106
ag211
asg22
I00
sg13
S'NAMEC55DKA'
p1575
sg343
I0
sg344
(lp1576
sbag1
(g328
g3
NtRp1577
(dp1578
g331
(lp1579
g349
ag151
ag194
ag106
ag211
ag362
asg22
I00
sg13
S'NAMEL4HCY2'
p1580
sg343
I0
sg344
(lp1581
sbag1
(g328
g3
NtRp1582
(dp1583
g331
(lp1584
g380
ag151
ag194
ag106
ag211
asg22
I00
sg13
S'NAMEC0P7O1'
p1585
sg343
I0
sg344
(lp1586
sbag1032
ag1396
ag1
(g328
g3
NtRp1587
(dp1588
g331
(lp1589
g436
asg22
I00
sg13
S'NAME7IFTGF'
p1590
sg343
I0
sg344
(lp1591
sbag544
ag739
ag480
asg21
g1556
sg495
F5994.3636363636369
sbsS'IDQQ00N6'
p1592
(ideepThought.ORM.ORM
Task
p1593
(dp1594
g88
F217.93589781299352
sg89
I3600
sg90
(lp1595
sg13
S''
sg92
(lp1596
sg94
F10
sg95
I2
sg96
Nsg97
Nsg98
(lp1597
g946
ag1
(g328
g3
NtRp1598
(dp1599
g331
(lp1600
g955
ag151
ag194
ag106
ag211
ag244
ag181
ag405
asg22
I00
sg13
S'NAMEFW9TW4'
p1601
sg343
I0
sg344
(lp1602
sbag966
ag1
(g328
g3
NtRp1603
(dp1604
g331
(lp1605
g975
ag151
ag194
ag296
ag275
ag305
ag106
ag211
ag244
ag405
asg22
I00
sg13
S'NAME9SG7CJ'
p1606
sg343
I0
sg344
(lp1607
sbag1
(g328
g3
NtRp1608
(dp1609
g331
(lp1610
g989
ag151
ag194
ag106
ag211
ag405
asg22
I00
sg13
S'NAMEEYAYJ5'
p1611
sg343
I0
sg344
(lp1612
sbag1
(g328
g3
NtRp1613
(dp1614
g331
(lp1615
g1007
ag405
asg22
I00
sg13
S'NAMEDMDQ2C'
p1616
sg343
I0
sg344
(lp1617
sbag1
(g328
g3
NtRp1618
(dp1619
g331
(lp1620
g1021
ag151
ag194
ag106
ag211
ag405
asg22
I00
sg13
S'NAMED1ECYK'
p1621
sg343
I0
sg344
(lp1622
sbag1032
ag1038
ag1
(g328
g3
NtRp1623
(dp1624
g331
(lp1625
g436
ag405
asg22
I00
sg13
S'NAMEA88N3Z'
p1626
sg343
I0
sg344
(lp1627
sbag1
(g10
g3
NtRp1628
(dp1629
g13
S'IDY5XS2G'
p1630
sg15
I0
sg16
(lp1631
sg18
I0
sg19
(lp1632
g452
ag405
asg21
S'ID7X8VJV'
p1633
sg22
I00
sbag1
(g328
g3
NtRp1634
(dp1635
g331
(lp1636
g1058
ag405
asg22
I00
sg13
S'NAME5ZJXJ4'
p1637
sg343
I0
sg344
(lp1638
sbag1
(g328
g3
NtRp1639
(dp1640
g331
(lp1641
g1072
ag151
ag194
ag211
ag405
asg22
I00
sg13
S'NAMESCV74J'
p1642
sg343
I0
sg344
(lp1643
sbag1
(g328
g3
NtRp1644
(dp1645
g331
(lp1646
g1086
ag151
ag194
ag106
ag211
ag405
asg22
I00
sg13
S'NAME9WEVMD'
p1647
sg343
I0
sg344
(lp1648
sbag1
(g328
g3
NtRp1649
(dp1650
g331
(lp1651
g1100
ag151
ag194
ag106
ag211
ag405
asg22
I00
sg13
S'NAMEC8MKGN'
p1652
sg343
I0
sg344
(lp1653
sbag1
(g328
g3
NtRp1654
(dp1655
g331
(lp1656
g1114
ag151
ag194
ag106
ag211
ag405
asg22
I00
sg13
S'NAME3YLH5B'
p1657
sg343
I0
sg344
(lp1658
sbag1
(g328
g3
NtRp1659
(dp1660
g331
(lp1661
g485
ag194
ag405
asg22
I00
sg13
S'NAMEXGMWUI'
p1662
sg343
I0
sg344
(lp1663
sbag72
asg21
g1592
sg495
F153.5
sbsS'IDGFIGB8'
p1664
(ideepThought.ORM.ORM
Task
p1665
(dp1666
g88
F4018.5079009503015
sg89
I-1
sg90
(lp1667
sg13
S''
sg92
(lp1668
I4905
aI4834
aI4878
aI5517
aI11531
aI8946
asg94
F9
sg95
I2
sg96
Nsg97
Nsg98
(lp1669
g1
(g328
g3
NtRp1670
(dp1671
g331
(lp1672
g1
(g105
g3
NtRp1673
(dp1674
g108
(lp1675
g1
(g110
g3
NtRp1676
(dp1677
g21
S'IDHJI2SU'
p1678
sg114
S''
sg13
S'NAMEWNGX6K'
p1679
sbasg148
S'IDJ7NTFU'
p1680
sg21
S'IDQWCIW0'
p1681
sg13
S''
sbag1
(g105
g3
NtRp1682
(dp1683
g108
(lp1684
g1
(g110
g3
NtRp1685
(dp1686
g21
S'IDZCARPK'
p1687
sg114
S''
sg13
S'NAMEBZNBVA'
p1688
sbag1
(g110
g3
NtRp1689
(dp1690
g21
S'IDD408EC'
p1691
sg114
S''
sg13
S'NAMENUOL3V'
p1692
sbag1
(g110
g3
NtRp1693
(dp1694
g21
S'IDTYLWC6'
p1695
sg114
S''
sg13
S'NAME3ZIAUL'
p1696
sbag1
(g110
g3
NtRp1697
(dp1698
g21
S'ID0L73H6'
p1699
sg114
S''
sg13
S'NAMEQDBILH'
p1700
sbasg148
S'ID3F6B7H'
p1701
sg21
S'IDLKZTBZ'
p1702
sg13
S''
sbag1
(g105
g3
NtRp1703
(dp1704
g108
(lp1705
g1
(g110
g3
NtRp1706
(dp1707
g21
S'IDWDFXQW'
p1708
sg114
S''
sg13
S'NAMEO5A3TF'
p1709
sbag1
(g110
g3
NtRp1710
(dp1711
g21
S'IDKXRF2G'
p1712
sg114
S''
sg13
S'NAMEYK3A9K'
p1713
sbag1
(g110
g3
NtRp1714
(dp1715
g21
S'IDMTBVFR'
p1716
sg114
S''
sg13
S'NAMEV7C9OJ'
p1717
sbasg148
S'IDLOP0IR'
p1718
sg21
S'ID2O9NQQ'
p1719
sg13
S''
sbag1
(g105
g3
NtRp1720
(dp1721
g108
(lp1722
g1
(g110
g3
NtRp1723
(dp1724
g21
S'IDYKTS0P'
p1725
sg114
S''
sg13
S'NAMEZ5MLCL'
p1726
sbag1
(g110
g3
NtRp1727
(dp1728
g21
S'IDA0G3I5'
p1729
sg114
S''
sg13
S'NAMEP9N7MO'
p1730
sbasg148
S'IDCHW5DE'
p1731
sg21
S'IDFJ23C2'
p1732
sg13
S''
sbag1
(g105
g3
NtRp1733
(dp1734
g108
(lp1735
g1
(g110
g3
NtRp1736
(dp1737
g21
S'IDIGT7W4'
p1738
sg114
S''
sg13
S'NAMENK0JTI'
p1739
sbag1
(g110
g3
NtRp1740
(dp1741
g21
S'ID97QGL8'
p1742
sg114
S''
sg13
S'NAMEYE5888'
p1743
sbasg148
S'IDI1PXZ0'
p1744
sg21
S'IDAJY2VS'
p1745
sg13
S''
sbag1
(g105
g3
NtRp1746
(dp1747
g108
(lp1748
g1
(g110
g3
NtRp1749
(dp1750
g21
S'IDA7IQA4'
p1751
sg114
S''
sg13
S'NAME5MACRA'
p1752
sbag1
(g110
g3
NtRp1753
(dp1754
g21
S'ID8M4IID'
p1755
sg114
S''
sg13
S'NAMEH7SNAP'
p1756
sbag1
(g110
g3
NtRp1757
(dp1758
g21
S'IDSQMTLX'
p1759
sg114
S''
sg13
S'NAMEAANAAH'
p1760
sbasg148
S'ID7OKLNN'
p1761
sg21
S'ID2DKQ04'
p1762
sg13
S''
sbag1
(g105
g3
NtRp1763
(dp1764
g108
(lp1765
sg148
g268
sg21
g29
sg13
S''
sbasg22
I00
sg13
S'NAMELP8FJM'
p1766
sg343
I0
sg344
(lp1767
sbag1
(g10
g3
NtRp1768
(dp1769
g13
S'IDK59ZCO'
p1770
sg15
I1
sg16
(lp1771
sg18
I1
sg19
(lp1772
g1682
ag1746
ag1703
ag1
(g105
g3
NtRp1773
(dp1774
g108
(lp1775
g1
(g110
g3
NtRp1776
(dp1777
g21
S'IDCQATSH'
p1778
sg114
S''
sg13
S'NAMEREF95W'
p1779
sbasg148
S'IDSDX6VT'
p1780
sg21
S'IDEM8037'
p1781
sg13
S''
sbag1720
ag1
(g105
g3
NtRp1782
(dp1783
g108
(lp1784
g1
(g110
g3
NtRp1785
(dp1786
g21
S'IDKS8NAT'
p1787
sg114
S''
sg13
S'NAMETVHK8H'
p1788
sbasg148
S'IDIQDV38'
p1789
sg21
S'ID1QE86O'
p1790
sg13
S''
sbag1763
asg21
S'ID95H86H'
p1791
sg22
I00
sbag1
(g10
g3
NtRp1792
(dp1793
g13
S'IDYMQFXZ'
p1794
sg15
I0
sg16
(lp1795
sg18
I0
sg19
(lp1796
g1682
ag1
(g105
g3
NtRp1797
(dp1798
g108
(lp1799
g1
(g110
g3
NtRp1800
(dp1801
g21
S'IDH1U9GD'
p1802
sg114
S''
sg13
S'NAMEC1TTZO'
p1803
sbag1
(g110
g3
NtRp1804
(dp1805
g21
S'IDMY7FFW'
p1806
sg114
S''
sg13
S'NAMEPHURV2'
p1807
sbasg148
S'ID98W1R7'
p1808
sg21
S'ID9EWMUC'
p1809
sg13
S''
sbag1746
ag1703
ag1763
asg21
S'IDOLF0U2'
p1810
sg22
I00
sbag1
(g10
g3
NtRp1811
(dp1812
g13
S'IDK32X2I'
p1813
sg15
I1
sg16
(lp1814
sg18
I1
sg19
(lp1815
g1
(g105
g3
NtRp1816
(dp1817
g108
(lp1818
g1
(g110
g3
NtRp1819
(dp1820
g21
S'ID7HVCQO'
p1821
sg114
S''
sg13
S'NAME3XD45T'
p1822
sbag1
(g110
g3
NtRp1823
(dp1824
g21
S'IDWL33BW'
p1825
sg114
S''
sg13
S'NAMEYZT91A'
p1826
sbag1
(g110
g3
NtRp1827
(dp1828
g21
S'IDHPTOIG'
p1829
sg114
S''
sg13
S'NAMEQT2JGL'
p1830
sbag1
(g110
g3
NtRp1831
(dp1832
g21
S'IDEFT44Y'
p1833
sg114
S''
sg13
S'NAME6285X6'
p1834
sbasg148
S'IDYFZCLZ'
p1835
sg21
S'ID7QU9VG'
p1836
sg13
S''
sbag1682
ag1
(g105
g3
NtRp1837
(dp1838
g108
(lp1839
g1
(g110
g3
NtRp1840
(dp1841
g21
S'IDR175SF'
p1842
sg114
S''
sg13
S'NAMEK82394'
p1843
sbag1
(g110
g3
NtRp1844
(dp1845
g21
S'ID2FU5BS'
p1846
sg114
S''
sg13
S'NAMET8ZNTY'
p1847
sbasg148
S'IDEU5M60'
p1848
sg21
S'IDR5AS6C'
p1849
sg13
S''
sbag1703
ag1746
ag1763
asg21
S'IDI2SPM0'
p1850
sg22
I00
sbag1
(g10
g3
NtRp1851
(dp1852
g13
S'IDAP2N6P'
p1853
sg15
I1
sg16
(lp1854
sg18
I1
sg19
(lp1855
g1
(g105
g3
NtRp1856
(dp1857
g108
(lp1858
g1
(g110
g3
NtRp1859
(dp1860
g21
S'IDK8YQAT'
p1861
sg114
S''
sg13
S'NAMEK28KX5'
p1862
sbasg148
S'IDNI4CDT'
p1863
sg21
S'ID1BZWWO'
p1864
sg13
S''
sbag1763
asg21
S'IDLSHRTC'
p1865
sg22
I00
sbag1
(g328
g3
NtRp1866
(dp1867
g331
(lp1868
g1
(g105
g3
NtRp1869
(dp1870
g108
(lp1871
g1
(g110
g3
NtRp1872
(dp1873
g21
S'IDVI6J3M'
p1874
sg114
S''
sg13
S'NAME89ZM47'
p1875
sbag1
(g110
g3
NtRp1876
(dp1877
g21
S'IDQI8D38'
p1878
sg114
S''
sg13
S'NAMEQEHYNG'
p1879
sbag1
(g110
g3
NtRp1880
(dp1881
g21
S'ID6CK7CR'
p1882
sg114
S''
sg13
S'NAMEYHW887'
p1883
sbag1
(g110
g3
NtRp1884
(dp1885
g21
S'IDG2UYNK'
p1886
sg114
S''
sg13
S'NAME20TO33'
p1887
sbasg148
S'IDC29J7S'
p1888
sg21
S'IDNZ8YWV'
p1889
sg13
S''
sbag1763
asg22
I00
sg13
S'NAME579S0T'
p1890
sg343
I0
sg344
(lp1891
sbag30
asg21
g1664
sg495
F4427
sbsS'IDH0UAHY'
p1892
(ideepThought.ORM.ORM
Task
p1893
(dp1894
g88
F22649.495248912885
sg89
I-1
sg90
(lp1895
sg13
S''
sg92
(lp1896
I47701
aI46944
aI40328
aI47360
aI47210
aI53983
aI48275
aI45399
aI39961
aI40107
aI46917
aI49222
aI47124
aI61285
aI56026
aI39976
aI40009
asg94
F47
sg95
I2
sg96
Nsg97
Nsg98
(lp1897
g1
(g328
g3
NtRp1898
(dp1899
g331
(lp1900
g172
ag151
ag194
ag106
ag211
ag244
ag181
asg22
I00
sg13
S'NAMERN0QC5'
p1901
sg343
I0
sg344
(lp1902
sbag1
(g328
g3
NtRp1903
(dp1904
g331
(lp1905
g318
ag151
ag194
ag296
ag275
ag305
ag106
ag211
ag244
asg22
I00
sg13
S'NAMEUXRC7T'
p1906
sg343
I0
sg344
(lp1907
sbag1
(g328
g3
NtRp1908
(dp1909
g331
(lp1910
g333
ag151
ag194
ag106
ag211
asg22
I00
sg13
S'NAMEUWBQX3'
p1911
sg343
I0
sg344
(lp1912
sbag1
(g328
g3
NtRp1913
(dp1914
g331
(lp1915
g349
ag151
ag194
ag106
ag211
ag362
asg22
I00
sg13
S'NAMEO933L9'
p1916
sg343
I0
sg344
(lp1917
sbag1
(g328
g3
NtRp1918
(dp1919
g331
(lp1920
g380
ag151
ag194
ag106
ag211
asg22
I00
sg13
S'NAME19TVPV'
p1921
sg343
I0
sg344
(lp1922
sbag527
ag533
ag1
(g328
g3
NtRp1923
(dp1924
g331
(lp1925
g436
asg22
I00
sg13
S'NAME8MWUV2'
p1926
sg343
I0
sg344
(lp1927
sbag597
ag462
ag480
asg21
g1892
sg495
F27359.276595744679
sbsS'ID0A6KGW'
p1928
(ideepThought.ORM.ORM
Task
p1929
(dp1930
g88
Nsg89
I-1
sg90
(lp1931
sg13
S''
sg92
(lp1932
I23
aI40
asg94
F0
sg95
I2
sg96
Nsg97
Nsg98
(lp1933
g1
(g328
g3
NtRp1934
(dp1935
g331
(lp1936
g172
ag151
ag194
ag106
ag211
ag244
ag181
ag476
asg22
I00
sg13
S'NAMEIUX9TU'
p1937
sg343
I0
sg344
(lp1938
sbag1
(g328
g3
NtRp1939
(dp1940
g331
(lp1941
g318
ag151
ag194
ag296
ag275
ag305
ag106
ag211
ag244
ag476
asg22
I00
sg13
S'NAMEROPI01'
p1942
sg343
I0
sg344
(lp1943
sbag1
(g328
g3
NtRp1944
(dp1945
g331
(lp1946
g333
ag151
ag194
ag106
ag211
ag476
asg22
I00
sg13
S'NAME08RNTZ'
p1947
sg343
I0
sg344
(lp1948
sbag1
(g328
g3
NtRp1949
(dp1950
g331
(lp1951
g349
ag151
ag194
ag106
ag211
ag362
ag476
asg22
I00
sg13
S'NAMEE2DWWS'
p1952
sg343
I0
sg344
(lp1953
sbag1
(g328
g3
NtRp1954
(dp1955
g331
(lp1956
g380
ag151
ag194
ag106
ag211
ag476
asg22
I00
sg13
S'NAMEZI0WMT'
p1957
sg343
I0
sg344
(lp1958
sbag1
(g328
g3
NtRp1959
(dp1960
g331
(lp1961
g396
ag476
asg22
I00
sg13
S'NAMES1WK72'
p1962
sg343
I0
sg344
(lp1963
sbag1
(g328
g3
NtRp1964
(dp1965
g331
(lp1966
g423
ag476
asg22
I00
sg13
S'NAMEOQIE71'
p1967
sg343
I0
sg344
(lp1968
sbag1
(g328
g3
NtRp1969
(dp1970
g331
(lp1971
g436
ag476
asg22
I00
sg13
S'NAMERNFXM0'
p1972
sg343
I0
sg344
(lp1973
sbag1
(g328
g3
NtRp1974
(dp1975
g331
(lp1976
g452
ag476
asg22
I00
sg13
S'NAMEWXWV5S'
p1977
sg343
I0
sg344
(lp1978
sbag1
(g328
g3
NtRp1979
(dp1980
g331
(lp1981
g467
ag476
asg22
I00
sg13
S'NAME0E2294'
p1982
sg343
I0
sg344
(lp1983
sbag1
(g328
g3
NtRp1984
(dp1985
g331
(lp1986
g485
ag194
ag476
asg22
I00
sg13
S'NAMEUGNTEC'
p1987
sg343
I0
sg344
(lp1988
sbag48
asg21
g1928
sg495
NsbsS'IDW2S6EQ'
p1989
(ideepThought.ORM.ORM
Task
p1990
(dp1991
g88
F12648.713607634023
sg89
I-1
sg90
(lp1992
sg13
S''
sg92
(lp1993
I706
aI7672
aI3361
aI4687
aI3148
aI2993
aI3171
aI5127
aI7800
aI656
aI8541
aI3693
aI3537
aI3309
aI3879
aI4581
aI4102
aI2588
aI5613
aI4712
aI7754
asg94
F55
sg95
I2
sg96
Nsg97
Nsg98
(lp1994
g1
(g328
g3
NtRp1995
(dp1996
g331
(lp1997
g172
ag151
ag194
ag106
ag211
ag244
ag181
asg22
I00
sg13
S'NAMEHT749V'
p1998
sg343
I0
sg344
(lp1999
sbag1
(g328
g3
NtRp2000
(dp2001
g331
(lp2002
g318
ag151
ag194
ag296
ag275
ag305
ag106
ag211
ag244
asg22
I00
sg13
S'NAMELYJSSO'
p2003
sg343
I0
sg344
(lp2004
sbag1
(g328
g3
NtRp2005
(dp2006
g331
(lp2007
g333
ag151
ag194
ag106
ag211
asg22
I00
sg13
S'NAMEUX7UWE'
p2008
sg343
I0
sg344
(lp2009
sbag1
(g328
g3
NtRp2010
(dp2011
g331
(lp2012
g349
ag151
ag194
ag106
ag211
ag362
asg22
I00
sg13
S'NAMEML2HP3'
p2013
sg343
I0
sg344
(lp2014
sbag1
(g328
g3
NtRp2015
(dp2016
g331
(lp2017
g380
ag151
ag194
ag106
ag211
asg22
I00
sg13
S'NAMENT6X5D'
p2018
sg343
I0
sg344
(lp2019
sbag1032
ag1396
ag1
(g328
g3
NtRp2020
(dp2021
g331
(lp2022
g436
asg22
I00
sg13
S'NAMENZ5AJS'
p2023
sg343
I0
sg344
(lp2024
sbag597
ag739
ag480
asg21
g1989
sg495
F5178.3272727272724
sbsS'IDJT4FD1'
p2025
(ideepThought.ORM.ORM
Task
p2026
(dp2027
g88
Nsg89
I-1
sg90
(lp2028
sg13
S''
sg92
(lp2029
I4796
aI1100
aI4794
aI1059
aI1054
aI1075
aI1023
aI1073
aI1029
aI1042
aI1047
aI1077
aI1072
aI1093
aI1044
aI1076
aI1048
aI1057
aI1103
aI1044
aI3258
aI4820
aI4805
aI1769
aI4754
aI1219
aI4938
aI5054
aI1065
aI4945
aI4760
aI1070
aI1102
aI1126
aI5034
aI4685
aI1070
aI1735
aI1072
aI1773
aI1065
aI1097
aI1097
aI5180
aI1034
aI1146
aI1063
aI1071
aI1064
aI4971
aI1130
aI1098
aI1072
aI1094
aI1102
aI1099
aI1091
aI1099
aI1070
aI1043
aI1075
aI1065
aI4788
aI1087
aI4771
asg94
F0
sg95
I2
sg96
Nsg97
Nsg98
(lp2030
g100
ag270
ag1
(g328
g3
NtRp2031
(dp2032
g331
(lp2033
g333
ag151
ag194
ag106
ag211
asg22
I00
sg13
S'NAMECN88X0'
p2034
sg343
I0
sg344
(lp2035
sbag1
(g328
g3
NtRp2036
(dp2037
g331
(lp2038
g349
ag151
ag194
ag106
ag211
ag362
asg22
I00
sg13
S'NAMEE79YI1'
p2039
sg343
I0
sg344
(lp2040
sbag1390
ag1032
ag1396
ag1402
ag447
ag462
ag480
asg21
g2025
sg495
NsbsS'IDWQUK4M'
p2041
(ideepThought.ORM.ORM
Task
p2042
(dp2043
g88
F6006.1649993985347
sg89
I57600
sg90
(lp2044
sg13
S''
sg92
(lp2045
sg94
F2
sg95
I2
sg96
Nsg97
Nsg98
(lp2046
g1
(g328
g3
NtRp2047
(dp2048
g331
(lp2049
g172
ag151
ag194
ag106
ag211
ag244
ag181
asg22
I00
sg13
S'NAMEJCJRMH'
p2050
sg343
I0
sg344
(lp2051
sbag1
(g328
g3
NtRp2052
(dp2053
g331
(lp2054
g318
ag151
ag194
ag296
ag275
ag305
ag106
ag211
ag244
asg22
I00
sg13
S'NAMEU2YA5W'
p2055
sg343
I0
sg344
(lp2056
sbag1
(g328
g3
NtRp2057
(dp2058
g331
(lp2059
g333
ag151
ag194
ag106
ag211
asg22
I00
sg13
S'NAMETTJU9F'
p2060
sg343
I0
sg344
(lp2061
sbag1
(g328
g3
NtRp2062
(dp2063
g331
(lp2064
g349
ag151
ag194
ag106
ag211
ag362
asg22
I00
sg13
S'NAMECORZ78'
p2065
sg343
I0
sg344
(lp2066
sbag1
(g328
g3
NtRp2067
(dp2068
g331
(lp2069
g380
ag151
ag194
ag106
ag211
asg22
I00
sg13
S'NAMES1BMQ0'
p2070
sg343
I0
sg344
(lp2071
sbag391
ag418
ag1
(g328
g3
NtRp2072
(dp2073
g331
(lp2074
g436
asg22
I00
sg13
S'NAMEL6X8F9'
p2075
sg343
I0
sg344
(lp2076
sbag597
ag739
ag480
asg21
g2041
sg495
F4288
sbsS'IDR664DH'
p2077
(ideepThought.ORM.ORM
Task
p2078
(dp2079
g88
F130.97412925419408
sg89
I1800
sg90
(lp2080
sg13
S''
sg92
(lp2081
I655
asg94
F93
sg95
I2
sg96
Nsg97
Nsg98
(lp2082
g1
(g10
g3
NtRp2083
(dp2084
g13
S'IDNWKVAT'
p2085
sg15
I1
sg16
(lp2086
sg18
I1
sg19
(lp2087
g172
ag181
ag194
ag211
ag244
ag106
ag151
ag408
asg21
S'ID45MCU5'
p2088
sg22
I00
sbag1426
ag1
(g328
g3
NtRp2089
(dp2090
g331
(lp2091
g333
ag151
ag194
ag106
ag211
ag408
asg22
I00
sg13
S'NAMEQU7QTE'
p2092
sg343
I0
sg344
(lp2093
sbag1
(g328
g3
NtRp2094
(dp2095
g331
(lp2096
g349
ag151
ag194
ag106
ag211
ag362
ag408
asg22
I00
sg13
S'NAMEK96HB7'
p2097
sg343
I0
sg344
(lp2098
sbag1
(g328
g3
NtRp2099
(dp2100
g331
(lp2101
g380
ag151
ag194
ag106
ag211
ag408
asg22
I00
sg13
S'NAMEE3E58B'
p2102
sg343
I0
sg344
(lp2103
sbag1032
ag1396
ag1
(g328
g3
NtRp2104
(dp2105
g331
(lp2106
g436
ag408
asg22
I00
sg13
S'NAME5WEYGD'
p2107
sg343
I0
sg344
(lp2108
sbag697
ag462
ag480
ag60
asg21
g2077
sg495
F202.40860215053766
sbsS'IDGSMZPZ'
p2109
(ideepThought.ORM.ORM
Task
p2110
(dp2111
g88
F171.81466112581248
sg89
I3600
sg90
(lp2112
sg13
S''
sg92
(lp2113
sg94
F9
sg95
I2
sg96
Nsg97
Nsg98
(lp2114
g1
(g328
g3
NtRp2115
(dp2116
g331
(lp2117
g172
ag151
ag194
ag106
ag211
ag244
ag181
ag405
asg22
I00
sg13
S'NAMESC59HX'
p2118
sg343
I0
sg344
(lp2119
sbag1
(g328
g3
NtRp2120
(dp2121
g331
(lp2122
g955
ag151
ag194
ag106
ag211
ag244
ag181
ag405
asg22
I00
sg13
S'NAMEJQXFIZ'
p2123
sg343
I0
sg344
(lp2124
sbag1
(g328
g3
NtRp2125
(dp2126
g331
(lp2127
g318
ag151
ag194
ag296
ag275
ag305
ag106
ag211
ag244
ag405
asg22
I00
sg13
S'NAME16XQW4'
p2128
sg343
I0
sg344
(lp2129
sbag1
(g328
g3
NtRp2130
(dp2131
g331
(lp2132
g975
ag151
ag194
ag296
ag275
ag305
ag106
ag211
ag244
ag405
asg22
I00
sg13
S'NAME8PJ6UR'
p2133
sg343
I0
sg344
(lp2134
sbag1
(g328
g3
NtRp2135
(dp2136
g331
(lp2137
g989
ag151
ag194
ag106
ag211
ag405
asg22
I00
sg13
S'NAMEC03J0F'
p2138
sg343
I0
sg344
(lp2139
sbag1
(g328
g3
NtRp2140
(dp2141
g331
(lp2142
g1007
ag405
asg22
I00
sg13
S'NAMEDCILW2'
p2143
sg343
I0
sg344
(lp2144
sbag1
(g328
g3
NtRp2145
(dp2146
g331
(lp2147
g1021
ag151
ag194
ag106
ag211
ag405
asg22
I00
sg13
S'NAMET2OH6C'
p2148
sg343
I0
sg344
(lp2149
sbag1032
ag1038
ag1
(g328
g3
NtRp2150
(dp2151
g331
(lp2152
g436
ag405
asg22
I00
sg13
S'NAMEO6L1YC'
p2153
sg343
I0
sg344
(lp2154
sbag1
(g10
g3
NtRp2155
(dp2156
g13
S'IDGQNTQY'
p2157
sg15
I0
sg16
(lp2158
sg18
I0
sg19
(lp2159
g452
ag405
asg21
S'IDYXN1MJ'
p2160
sg22
I00
sbag1
(g10
g3
NtRp2161
(dp2162
g13
S'IDU9PRBH'
p2163
sg15
I1
sg16
(lp2164
sg18
I1
sg19
(lp2165
g1058
ag405
ag414
asg21
S'ID5GLB20'
p2166
sg22
I00
sbag1
(g328
g3
NtRp2167
(dp2168
g331
(lp2169
g1072
ag151
ag194
ag211
ag405
asg22
I00
sg13
S'NAME66YNQH'
p2170
sg343
I0
sg344
(lp2171
sbag1
(g328
g3
NtRp2172
(dp2173
g331
(lp2174
g1086
ag151
ag194
ag106
ag211
ag405
asg22
I00
sg13
S'NAME3Y7VLJ'
p2175
sg343
I0
sg344
(lp2176
sbag1
(g328
g3
NtRp2177
(dp2178
g331
(lp2179
g1100
ag151
ag194
ag106
ag211
ag405
asg22
I00
sg13
S'NAMECPYSPP'
p2180
sg343
I0
sg344
(lp2181
sbag1
(g328
g3
NtRp2182
(dp2183
g331
(lp2184
g1114
ag151
ag194
ag106
ag211
ag405
asg22
I00
sg13
S'NAMEYMUQZG'
p2185
sg343
I0
sg344
(lp2186
sbag1
(g328
g3
NtRp2187
(dp2188
g331
(lp2189
g485
ag194
ag405
asg22
I00
sg13
S'NAMEYIRWOX'
p2190
sg343
I0
sg344
(lp2191
sbag72
asg21
g2109
sg495
F123.55555555555554
sbsS'ID35UFTU'
p2192
(ideepThought.ORM.ORM
Task
p2193
(dp2194
g88
F2556.6314512058025
sg89
I28800
sg90
(lp2195
sg13
S''
sg92
(lp2196
I4288
aI5193
aI8913
aI5528
aI4272
aI17535
aI4596
aI4277
aI7427
aI6399
aI6224
aI4317
aI8111
aI4521
aI4206
aI6291
aI8409
aI4273
aI6388
aI18495
aI6856
aI73
aI6517
aI5673
aI4276
aI421
aI3281
aI5797
aI5528
aI4686
aI4102
aI5006
aI4591
aI4580
asg94
F46
sg95
I2
sg96
Nsg97
Nsg98
(lp2197
g1
(g328
g3
NtRp2198
(dp2199
g331
(lp2200
g172
ag151
ag194
ag106
ag211
ag244
ag181
asg22
I00
sg13
S'NAMEV1M1QA'
p2201
sg343
I0
sg344
(lp2202
sbag1
(g328
g3
NtRp2203
(dp2204
g331
(lp2205
g318
ag151
ag194
ag296
ag275
ag305
ag106
ag211
ag244
asg22
I00
sg13
S'NAMELYV1KM'
p2206
sg343
I0
sg344
(lp2207
sbag1
(g328
g3
NtRp2208
(dp2209
g331
(lp2210
g333
ag151
ag194
ag106
ag211
asg22
I00
sg13
S'NAMEQJU997'
p2211
sg343
I0
sg344
(lp2212
sbag1
(g328
g3
NtRp2213
(dp2214
g331
(lp2215
g349
ag151
ag194
ag106
ag211
ag362
asg22
I00
sg13
S'NAMEFA2K95'
p2216
sg343
I0
sg344
(lp2217
sbag1
(g328
g3
NtRp2218
(dp2219
g331
(lp2220
g380
ag151
ag194
ag106
ag211
asg22
I00
sg13
S'NAMEPD0DB7'
p2221
sg343
I0
sg344
(lp2222
sbag1032
ag1396
ag1
(g328
g3
NtRp2223
(dp2224
g331
(lp2225
g436
asg22
I00
sg13
S'NAMEDNFM6Q'
p2226
sg343
I0
sg344
(lp2227
sbag447
ag462
ag480
asg21
g2192
sg495
F4463.978260869565
sbsS'IDG8I5VO'
p2228
(ideepThought.ORM.ORM
Task
p2229
(dp2230
g88
F1076.564303699505
sg89
I-1
sg90
(lp2231
sg13
S''
sg92
(lp2232
sg94
F5
sg95
I2
sg96
Nsg97
Nsg98
(lp2233
g1
(g328
g3
NtRp2234
(dp2235
g331
(lp2236
g333
ag151
ag194
ag106
ag211
asg22
I00
sg13
S'NAMEXL9UEM'
p2237
sg343
I0
sg344
(lp2238
sbasg21
g2228
sg495
F499.20000000000005
sbsS'IDFAUYTI'
p2239
(ideepThought.ORM.ORM
Task
p2240
(dp2241
g88
F9415.029547879265
sg89
I36000
sg90
(lp2242
sg13
S''
sg92
(lp2243
I19860
aI19855
aI20428
aI16780
aI20424
aI16378
asg94
F46
sg95
I2
sg96
Nsg97
Nsg98
(lp2244
g1
(g328
g3
NtRp2245
(dp2246
g331
(lp2247
g172
ag151
ag194
ag106
ag211
ag244
ag181
asg22
I00
sg13
S'NAME5M4D0J'
p2248
sg343
I0
sg344
(lp2249
sbag1
(g328
g3
NtRp2250
(dp2251
g331
(lp2252
g318
ag151
ag194
ag296
ag275
ag305
ag106
ag211
ag244
asg22
I00
sg13
S'NAME8QAY20'
p2253
sg343
I0
sg344
(lp2254
sbag1
(g328
g3
NtRp2255
(dp2256
g331
(lp2257
g333
ag151
ag194
ag106
ag211
asg22
I00
sg13
S'NAME53O7PK'
p2258
sg343
I0
sg344
(lp2259
sbag1
(g328
g3
NtRp2260
(dp2261
g331
(lp2262
g349
ag151
ag194
ag106
ag211
ag362
asg22
I00
sg13
S'NAMETXGMWI'
p2263
sg343
I0
sg344
(lp2264
sbag1
(g328
g3
NtRp2265
(dp2266
g331
(lp2267
g380
ag151
ag194
ag106
ag211
asg22
I00
sg13
S'NAME8GHD6L'
p2268
sg343
I0
sg344
(lp2269
sbag644
ag650
ag1
(g328
g3
NtRp2270
(dp2271
g331
(lp2272
g436
asg22
I00
sg13
S'NAMEFTK2ZR'
p2273
sg343
I0
sg344
(lp2274
sbag544
ag462
ag480
asg21
g2239
sg495
F13100.347826086956
sbsS'IDDV0SWO'
p2275
(ideepThought.ORM.ORM
Task
p2276
(dp2277
g88
F1087.6271956266387
sg89
I36000
sg90
(lp2278
sg13
S''
sg92
(lp2279
sg94
F4
sg95
I2
sg96
Nsg97
Nsg98
(lp2280
g1
(g328
g3
NtRp2281
(dp2282
g331
(lp2283
g172
ag151
ag194
ag106
ag211
ag244
ag181
asg22
I00
sg13
S'NAME9GNZHY'
p2284
sg343
I0
sg344
(lp2285
sbag1
(g328
g3
NtRp2286
(dp2287
g331
(lp2288
g318
ag151
ag194
ag296
ag275
ag305
ag106
ag211
ag244
asg22
I00
sg13
S'NAMEKYY3B1'
p2289
sg343
I0
sg344
(lp2290
sbag1
(g328
g3
NtRp2291
(dp2292
g331
(lp2293
g333
ag151
ag194
ag106
ag211
asg22
I00
sg13
S'NAME87OD8O'
p2294
sg343
I0
sg344
(lp2295
sbag1
(g328
g3
NtRp2296
(dp2297
g331
(lp2298
g349
ag151
ag194
ag106
ag211
ag362
asg22
I00
sg13
S'NAME704H22'
p2299
sg343
I0
sg344
(lp2300
sbag1
(g328
g3
NtRp2301
(dp2302
g331
(lp2303
g380
ag151
ag194
ag106
ag211
asg22
I00
sg13
S'NAMERS7DBV'
p2304
sg343
I0
sg344
(lp2305
sbag391
ag418
ag1
(g328
g3
NtRp2306
(dp2307
g331
(lp2308
g436
asg22
I00
sg13
S'NAMEANI6TF'
p2309
sg343
I0
sg344
(lp2310
sbag544
ag739
ag480
asg21
g2275
sg495
F2192.25
sbsS'ID6YKL72'
p2311
(ideepThought.ORM.ORM
Task
p2312
(dp2313
g88
F2462.1850592518113
sg89
I14400
sg90
(lp2314
sg13
S''
sg92
(lp2315
I5782
aI7371
aI7033
aI3930
aI6096
aI6402
asg94
F38
sg95
I2
sg96
Nsg97
Nsg98
(lp2316
g1
(g328
g3
NtRp2317
(dp2318
g331
(lp2319
g172
ag151
ag194
ag106
ag211
ag244
ag181
asg22
I00
sg13
S'NAMEX9L4EQ'
p2320
sg343
I0
sg344
(lp2321
sbag1
(g328
g3
NtRp2322
(dp2323
g331
(lp2324
g318
ag151
ag194
ag296
ag275
ag305
ag106
ag211
ag244
asg22
I00
sg13
S'NAMEXHUY2S'
p2325
sg343
I0
sg344
(lp2326
sbag1
(g328
g3
NtRp2327
(dp2328
g331
(lp2329
g333
ag151
ag194
ag106
ag211
asg22
I00
sg13
S'NAME04RBV4'
p2330
sg343
I0
sg344
(lp2331
sbag1
(g328
g3
NtRp2332
(dp2333
g331
(lp2334
g349
ag151
ag194
ag106
ag211
ag362
asg22
I00
sg13
S'NAMEJC7ZRP'
p2335
sg343
I0
sg344
(lp2336
sbag1
(g328
g3
NtRp2337
(dp2338
g331
(lp2339
g380
ag151
ag194
ag106
ag211
asg22
I00
sg13
S'NAME5FGD1A'
p2340
sg343
I0
sg344
(lp2341
sbag644
ag1
(g10
g3
NtRp2342
(dp2343
g13
S'IDLNGJV8'
p2344
sg15
I0
sg16
(lp2345
sg18
I0
sg19
(lp2346
g423
ag265
ag408
ag411
asg21
S'IDKNEBOA'
p2347
sg22
I00
sbag1
(g328
g3
NtRp2348
(dp2349
g331
(lp2350
g436
asg22
I00
sg13
S'NAMED30X8X'
p2351
sg343
I0
sg344
(lp2352
sbag1362
ag1
(g328
g3
NtRp2353
(dp2354
g331
(lp2355
g467
asg22
I00
sg13
S'NAMERFDICU'
p2356
sg343
I0
sg344
(lp2357
sbag480
asg21
g2311
sg495
F3285.3684210526312
sbsS'IDGDVIIH'
p2358
(ideepThought.ORM.ORM
Task
p2359
(dp2360
g88
F228.57318302898085
sg89
I1800
sg90
(lp2361
sg13
S''
sg92
(lp2362
sg94
F5
sg95
I2
sg96
Nsg97
Nsg98
(lp2363
g1
(g328
g3
NtRp2364
(dp2365
g331
(lp2366
g172
ag151
ag194
ag106
ag211
ag244
ag181
asg22
I00
sg13
S'NAME2YBAKY'
p2367
sg343
I0
sg344
(lp2368
sbag1
(g328
g3
NtRp2369
(dp2370
g331
(lp2371
g318
ag151
ag194
ag296
ag275
ag305
ag106
ag211
ag244
asg22
I00
sg13
S'NAME719MQQ'
p2372
sg343
I0
sg344
(lp2373
sbag1
(g328
g3
NtRp2374
(dp2375
g331
(lp2376
g333
ag151
ag194
ag106
ag211
asg22
I00
sg13
S'NAME0ICYF6'
p2377
sg343
I0
sg344
(lp2378
sbag1
(g328
g3
NtRp2379
(dp2380
g331
(lp2381
g349
ag151
ag194
ag106
ag211
ag362
asg22
I00
sg13
S'NAMECJ80IZ'
p2382
sg343
I0
sg344
(lp2383
sbag1
(g328
g3
NtRp2384
(dp2385
g331
(lp2386
g380
ag151
ag194
ag106
ag211
asg22
I00
sg13
S'NAME1CAQCX'
p2387
sg343
I0
sg344
(lp2388
sbag527
ag533
ag1
(g328
g3
NtRp2389
(dp2390
g331
(lp2391
g436
asg22
I00
sg13
S'NAME6K6RZL'
p2392
sg343
I0
sg344
(lp2393
sbag697
ag462
ag480
asg21
g2358
sg495
F409.80000000000001
sbsS'IDWFWVFR'
p2394
(ideepThought.ORM.ORM
Task
p2395
(dp2396
g88
I0
sg89
I-1
sg90
(lp2397
sg13
S''
sg92
(lp2398
I814
asg94
F1
sg95
I2
sg96
Nsg97
Nsg98
(lp2399
g100
ag270
ag1
(g328
g3
NtRp2400
(dp2401
g331
(lp2402
g333
ag151
ag194
ag106
ag211
ag265
asg22
I00
sg13
S'NAMECD63XV'
p2403
sg343
I0
sg344
(lp2404
sbag1
(g328
g3
NtRp2405
(dp2406
g331
(lp2407
g349
ag151
ag194
ag106
ag211
ag362
ag265
asg22
I00
sg13
S'NAMEQDX9MW'
p2408
sg343
I0
sg344
(lp2409
sbag1
(g328
g3
NtRp2410
(dp2411
g331
(lp2412
g380
ag151
ag194
ag106
ag211
ag265
asg22
I00
sg13
S'NAMEF21PAQ'
p2413
sg343
I0
sg344
(lp2414
sbag1
(g328
g3
NtRp2415
(dp2416
g331
(lp2417
g396
ag265
asg22
I00
sg13
S'NAMEHY4L6B'
p2418
sg343
I0
sg344
(lp2419
sbag1
(g328
g3
NtRp2420
(dp2421
g331
(lp2422
g423
ag265
asg22
I00
sg13
S'NAMERXCKF2'
p2423
sg343
I0
sg344
(lp2424
sbag1
(g328
g3
NtRp2425
(dp2426
g331
(lp2427
g436
ag265
asg22
I00
sg13
S'NAMEYN925R'
p2428
sg343
I0
sg344
(lp2429
sbag1
(g328
g3
NtRp2430
(dp2431
g331
(lp2432
g452
ag265
asg22
I00
sg13
S'NAMEF1M6QX'
p2433
sg343
I0
sg344
(lp2434
sbag1
(g328
g3
NtRp2435
(dp2436
g331
(lp2437
g467
ag265
asg22
I00
sg13
S'NAMEUUZ6AQ'
p2438
sg343
I0
sg344
(lp2439
sbag1
(g328
g3
NtRp2440
(dp2441
g331
(lp2442
g485
ag194
ag265
asg22
I00
sg13
S'NAMED8MIPE'
p2443
sg343
I0
sg344
(lp2444
sbag42
asg21
g2394
sg495
F814
sbsS'ID789VE9'
p2445
(ideepThought.ORM.ORM
Task
p2446
(dp2447
g88
F13597.050247085532
sg89
I36000
sg90
(lp2448
sg13
S''
sg92
(lp2449
I25764
aI29546
aI29379
aI33851
aI29321
aI28299
aI27435
aI29787
aI72
aI27689
aI42
aI28884
asg94
F49
sg95
I2
sg96
Nsg97
Nsg98
(lp2450
g1
(g328
g3
NtRp2451
(dp2452
g331
(lp2453
g172
ag151
ag194
ag106
ag211
ag244
ag181
asg22
I00
sg13
S'NAME4QW9QD'
p2454
sg343
I0
sg344
(lp2455
sbag1
(g328
g3
NtRp2456
(dp2457
g331
(lp2458
g318
ag151
ag194
ag296
ag275
ag305
ag106
ag211
ag244
asg22
I00
sg13
S'NAME6N6GNS'
p2459
sg343
I0
sg344
(lp2460
sbag1
(g328
g3
NtRp2461
(dp2462
g331
(lp2463
g333
ag151
ag194
ag106
ag211
asg22
I00
sg13
S'NAMEED2E1T'
p2464
sg343
I0
sg344
(lp2465
sbag1
(g328
g3
NtRp2466
(dp2467
g331
(lp2468
g349
ag151
ag194
ag106
ag211
ag362
asg22
I00
sg13
S'NAMEJE6SJB'
p2469
sg343
I0
sg344
(lp2470
sbag1
(g328
g3
NtRp2471
(dp2472
g331
(lp2473
g380
ag151
ag194
ag106
ag211
asg22
I00
sg13
S'NAME76ID0V'
p2474
sg343
I0
sg344
(lp2475
sbag644
ag2342
ag1
(g328
g3
NtRp2476
(dp2477
g331
(lp2478
g436
asg22
I00
sg13
S'NAME0EBIHL'
p2479
sg343
I0
sg344
(lp2480
sbag1514
ag462
ag480
asg21
g2445
sg495
F13837.510204081631
sbsS'IDSQSED9'
p2481
(ideepThought.ORM.ORM
Task
p2482
(dp2483
g88
F1991.8134281475811
sg89
I10800
sg90
(lp2484
sg13
S''
sg92
(lp2485
I5261
aI4771
aI6098
aI5484
aI8352
aI8083
aI5458
aI5434
aI5748
aI8953
aI5490
aI6073
aI4707
aI8762
aI5100
aI418
aI4127
aI773
aI3993
aI521
aI8632
aI5104
aI5272
aI6148
aI989
aI8368
aI5703
aI510
aI75
aI496
aI8169
aI3300
aI460
aI3395
aI5794
aI5314
aI5636
asg94
F51
sg95
I2
sg96
Nsg97
Nsg98
(lp2486
g1
(g328
g3
NtRp2487
(dp2488
g331
(lp2489
g172
ag151
ag194
ag106
ag211
ag244
ag181
asg22
I00
sg13
S'NAMETQZDBN'
p2490
sg343
I0
sg344
(lp2491
sbag1
(g328
g3
NtRp2492
(dp2493
g331
(lp2494
g318
ag151
ag194
ag296
ag275
ag305
ag106
ag211
ag244
asg22
I00
sg13
S'NAMEANWKB9'
p2495
sg343
I0
sg344
(lp2496
sbag1
(g328
g3
NtRp2497
(dp2498
g331
(lp2499
g333
ag151
ag194
ag106
ag211
asg22
I00
sg13
S'NAME0F962V'
p2500
sg343
I0
sg344
(lp2501
sbag1
(g328
g3
NtRp2502
(dp2503
g331
(lp2504
g349
ag151
ag194
ag106
ag211
ag362
asg22
I00
sg13
S'NAMECXVZ7L'
p2505
sg343
I0
sg344
(lp2506
sbag1
(g328
g3
NtRp2507
(dp2508
g331
(lp2509
g380
ag151
ag194
ag106
ag211
asg22
I00
sg13
S'NAMEHTXURT'
p2510
sg343
I0
sg344
(lp2511
sbag1032
ag1
(g10
g3
NtRp2512
(dp2513
g13
S'IDCE53WJ'
p2514
sg15
I0
sg16
(lp2515
sg18
I0
sg19
(lp2516
g423
ag265
ag408
ag411
asg21
S'IDOTG1HA'
p2517
sg22
I00
sbag1
(g328
g3
NtRp2518
(dp2519
g331
(lp2520
g436
asg22
I00
sg13
S'NAMENKQ90N'
p2521
sg343
I0
sg344
(lp2522
sbag1362
ag462
ag480
asg21
g2481
sg495
F3556.7843137254899
sbsS'ID30MI87'
p2523
(ideepThought.ORM.ORM
Task
p2524
(dp2525
g88
F677.150596479912
sg89
I7200
sg90
(lp2526
sg13
S''
sg92
(lp2527
I862
aI1010
aI1276
aI1024
aI1038
aI867
aI1030
aI745
aI746
aI1028
aI1420
aI733
aI580
aI832
aI1080
aI1072
aI1286
aI1024
aI1374
aI2471
aI1332
aI1445
aI1263
aI1021
aI1068
aI860
aI881
aI1158
aI726
aI1325
aI1270
aI1061
aI1314
aI1261
aI1066
aI1093
aI749
aI1277
aI1280
aI2832
aI789
aI805
aI1480
aI1364
aI1542
aI1274
aI1796
aI2579
aI1037
aI2498
aI1083
aI1493
aI1023
aI451
aI1063
aI720
aI943
aI1036
aI934
aI1038
aI945
aI954
aI1777
aI456
aI1257
aI1610
aI1288
aI718
aI1162
aI1054
aI1263
aI936
aI2174
aI1500
aI1029
aI1806
aI1037
aI1041
aI1038
aI1508
aI792
aI1290
aI791
aI1022
aI1502
aI1414
aI1244
aI1072
aI1609
aI1332
aI795
aI2823
aI1170
aI793
asg94
F224
sg95
I2
sg96
Nsg97
Nsg98
(lp2528
g1
(g328
g3
NtRp2529
(dp2530
g331
(lp2531
g172
ag151
ag194
ag106
ag211
ag244
ag181
ag265
asg22
I00
sg13
S'NAME6BE3AA'
p2532
sg343
I0
sg344
(lp2533
sbag1
(g328
g3
NtRp2534
(dp2535
g331
(lp2536
g318
ag151
ag194
ag296
ag275
ag305
ag106
ag211
ag244
ag265
asg22
I00
sg13
S'NAME5MNGNG'
p2537
sg343
I0
sg344
(lp2538
sbag1
(g328
g3
NtRp2539
(dp2540
g331
(lp2541
g333
ag151
ag194
ag106
ag211
ag265
asg22
I00
sg13
S'NAMEEF775G'
p2542
sg343
I0
sg344
(lp2543
sbag1
(g328
g3
NtRp2544
(dp2545
g331
(lp2546
g349
ag151
ag194
ag106
ag211
ag362
ag265
asg22
I00
sg13
S'NAMEZAIP27'
p2547
sg343
I0
sg344
(lp2548
sbag1390
ag1
(g328
g3
NtRp2549
(dp2550
g331
(lp2551
g396
ag265
asg22
I00
sg13
S'NAMEC7QFM5'
p2552
sg343
I0
sg344
(lp2553
sbag1
(g328
g3
NtRp2554
(dp2555
g331
(lp2556
g423
ag265
asg22
I00
sg13
S'NAMEO4BPJV'
p2557
sg343
I0
sg344
(lp2558
sbag1
(g328
g3
NtRp2559
(dp2560
g331
(lp2561
g436
ag265
asg22
I00
sg13
S'NAMEI1638N'
p2562
sg343
I0
sg344
(lp2563
sbag697
ag462
ag480
ag42
asg21
g2523
sg495
F1019.7366071428571
sbsS'ID7RG6JS'
p2564
(ideepThought.ORM.ORM
Task
p2565
(dp2566
g88
F27778.530408711293
sg89
I-1
sg90
(lp2567
sg13
S''
sg92
(lp2568
I27172
aI50709
aI69263
aI44270
aI44570
aI60493
aI55369
aI46630
aI70930
aI61715
aI45508
aI53980
aI45509
aI427
aI67130
aI59726
aI44379
aI44331
aI64474
aI44337
aI52865
aI52857
aI59846
aI69425
aI51939
aI44825
aI45990
aI62522
aI655
aI55303
aI43601
aI63135
aI60814
aI45616
aI46807
aI56993
aI84886
aI56323
aI44351
aI57420
aI52226
aI10
aI632
aI2827
aI44749
aI399
aI45266
aI45977
aI51159
aI44344
aI51144
aI55529
asg94
F117
sg95
I2
sg96
Nsg97
Nsg98
(lp2569
g1
(g328
g3
NtRp2570
(dp2571
g331
(lp2572
g172
ag151
ag194
ag106
ag211
ag244
ag181
asg22
I00
sg13
S'NAMEI2NB41'
p2573
sg343
I0
sg344
(lp2574
sbag1
(g328
g3
NtRp2575
(dp2576
g331
(lp2577
g318
ag151
ag194
ag296
ag275
ag305
ag106
ag211
ag244
asg22
I00
sg13
S'NAME5QRJ9H'
p2578
sg343
I0
sg344
(lp2579
sbag1
(g328
g3
NtRp2580
(dp2581
g331
(lp2582
g333
ag151
ag194
ag106
ag211
asg22
I00
sg13
S'NAMEPQG0CT'
p2583
sg343
I0
sg344
(lp2584
sbag1
(g328
g3
NtRp2585
(dp2586
g331
(lp2587
g349
ag151
ag194
ag106
ag211
ag362
asg22
I00
sg13
S'NAMEXOUG93'
p2588
sg343
I0
sg344
(lp2589
sbag1
(g328
g3
NtRp2590
(dp2591
g331
(lp2592
g380
ag151
ag194
ag106
ag211
asg22
I00
sg13
S'NAMECXJ1M8'
p2593
sg343
I0
sg344
(lp2594
sbag1032
ag1396
ag1
(g328
g3
NtRp2595
(dp2596
g331
(lp2597
g436
asg22
I00
sg13
S'NAMEB71ICP'
p2598
sg343
I0
sg344
(lp2599
sbag597
ag462
ag480
asg21
g2564
sg495
F34753.37606837607
sbsS'ID8KEDJR'
p2600
(ideepThought.ORM.ORM
Task
p2601
(dp2602
g88
F12593.867113945333
sg89
I36000
sg90
(lp2603
sg13
S''
sg92
(lp2604
I25826
aI27220
aI5098
aI26160
aI26925
aI27503
aI1286
aI5172
aI22516
aI14087
aI27788
aI27801
aI27802
aI27335
aI8472
aI28665
aI7778
aI5347
aI4767
aI5377
aI12247
aI18826
aI9953
aI5660
aI25715
aI1663
aI27363
aI28284
aI27820
aI7926
aI10740
aI2847
aI3729
aI26482
aI26594
aI5125
aI26845
aI28416
aI27254
aI5090
aI26158
aI25897
aI1894
aI26182
aI27785
aI5834
aI5279
aI36001
aI678
aI26052
aI26162
aI72
aI26146
aI27276
aI25558
aI27283
aI4211
aI27295
aI24471
aI27498
aI5170
aI25678
aI28304
aI27635
aI27395
aI27697
aI27292
aI27537
asg94
F114
sg95
I2
sg96
Nsg97
Nsg98
(lp2605
g1
(g328
g3
NtRp2606
(dp2607
g331
(lp2608
g172
ag151
ag194
ag106
ag211
ag244
ag181
asg22
I00
sg13
S'NAME6D775S'
p2609
sg343
I0
sg344
(lp2610
sbag1
(g328
g3
NtRp2611
(dp2612
g331
(lp2613
g318
ag151
ag194
ag296
ag275
ag305
ag106
ag211
ag244
asg22
I00
sg13
S'NAMEUYNVLJ'
p2614
sg343
I0
sg344
(lp2615
sbag1
(g328
g3
NtRp2616
(dp2617
g331
(lp2618
g333
ag151
ag194
ag106
ag211
asg22
I00
sg13
S'NAMEMWXBHZ'
p2619
sg343
I0
sg344
(lp2620
sbag1
(g328
g3
NtRp2621
(dp2622
g331
(lp2623
g349
ag151
ag194
ag106
ag211
ag362
asg22
I00
sg13
S'NAMEA5ECBZ'
p2624
sg343
I0
sg344
(lp2625
sbag1
(g328
g3
NtRp2626
(dp2627
g331
(lp2628
g380
ag151
ag194
ag106
ag211
asg22
I00
sg13
S'NAME24XDWM'
p2629
sg343
I0
sg344
(lp2630
sbag1032
ag2512
ag1
(g328
g3
NtRp2631
(dp2632
g331
(lp2633
g436
asg22
I00
sg13
S'NAMETP0G3P'
p2634
sg343
I0
sg344
(lp2635
sbag1514
ag462
ag480
asg21
g2600
sg495
F13519.298245614034
sbssS'capabilities'
p2636
(dp2637
S'ID1IN047'
p2638
g1
(g105
g3
NtRp2639
(dp2640
g108
(lp2641
g1
(g110
g3
NtRp2642
(dp2643
g21
S'IDHCLPG2'
p2644
sg114
S''
sg13
S'NAMEF3UNEX'
p2645
sbag1
(g110
g3
NtRp2646
(dp2647
g21
S'IDWUAG21'
p2648
sg114
S''
sg13
S'NAMEHAR9KV'
p2649
sbasg148
S'IDHLOOR7'
p2650
sg21
g2638
sg13
S''
sbsg243
g211
sS'IDN2RM8W'
p2651
g1
(g105
g3
NtRp2652
(dp2653
g108
(lp2654
g1
(g110
g3
NtRp2655
(dp2656
g21
S'IDHWDF3W'
p2657
sg114
S''
sg13
S'NAMEKIR2NK'
p2658
sbag1
(g110
g3
NtRp2659
(dp2660
g21
S'IDL6TYLA'
p2661
sg114
S''
sg13
S'NAME9NQTXM'
p2662
sbag1
(g110
g3
NtRp2663
(dp2664
g21
S'IDXPO8PT'
p2665
sg114
S''
sg13
S'NAME2WO8P6'
p2666
sbag1
(g110
g3
NtRp2667
(dp2668
g21
S'ID3CKGOU'
p2669
sg114
S''
sg13
S'NAME2GS01I'
p2670
sbag1
(g110
g3
NtRp2671
(dp2672
g21
S'IDHKEWRP'
p2673
sg114
S''
sg13
S'NAME9ZE6FW'
p2674
sbag1
(g110
g3
NtRp2675
(dp2676
g21
S'ID14NT2Q'
p2677
sg114
S''
sg13
S'NAME9NCAKA'
p2678
sbag1
(g110
g3
NtRp2679
(dp2680
g21
S'ID45RAOX'
p2681
sg114
S''
sg13
S'NAMEQ8JL6G'
p2682
sbasg148
S'ID7IK776'
p2683
sg21
g2651
sg13
S''
sbsg210
g194
sg1122
g1114
sg326
g318
sS'ID38PODT'
p2684
g1
(g105
g3
NtRp2685
(dp2686
g108
(lp2687
g1
(g110
g3
NtRp2688
(dp2689
g21
S'IDVVVE7L'
p2690
sg114
S''
sg13
S'NAMETD5ZA8'
p2691
sbasg148
S'IDTXJBYA'
p2692
sg21
g2684
sg13
S''
sbsg317
g305
sS'IDQCC9ED'
p2693
g1
(g105
g3
NtRp2694
(dp2695
g108
(lp2696
g1
(g110
g3
NtRp2697
(dp2698
g21
S'IDYVNDDF'
p2699
sg114
S''
sg13
S'NAMEGRKL98'
p2700
sbag1
(g110
g3
NtRp2701
(dp2702
g21
S'IDQI3S69'
p2703
sg114
S''
sg13
S'NAME0ZNJPJ'
p2704
sbag1
(g110
g3
NtRp2705
(dp2706
g21
S'ID24K27V'
p2707
sg114
S''
sg13
S'NAME5FP2WY'
p2708
sbag1
(g110
g3
NtRp2709
(dp2710
g21
S'IDAZNQZJ'
p2711
sg114
S''
sg13
S'NAMERKUEUU'
p2712
sbag1
(g110
g3
NtRp2713
(dp2714
g21
S'IDM7WU9B'
p2715
sg114
S''
sg13
S'NAMEHB8TKR'
p2716
sbag1
(g110
g3
NtRp2717
(dp2718
g21
S'ID7L8Z1Y'
p2719
sg114
S''
sg13
S'NAMEQ6QUNV'
p2720
sbag1
(g110
g3
NtRp2721
(dp2722
g21
S'IDJ4WHBG'
p2723
sg114
S''
sg13
S'NAMEFVFBQJ'
p2724
sbag1
(g110
g3
NtRp2725
(dp2726
g21
S'IDEMZQB8'
p2727
sg114
S''
sg13
S'NAMESTWD1P'
p2728
sbag1
(g110
g3
NtRp2729
(dp2730
g21
S'ID842DLP'
p2731
sg114
S''
sg13
S'NAMEDFF85N'
p2732
sbasg148
S'IDSDUZTP'
p2733
sg21
g2693
sg13
S''
sbsS'IDIX47R7'
p2734
g1
(g105
g3
NtRp2735
(dp2736
g108
(lp2737
g1
(g110
g3
NtRp2738
(dp2739
g21
S'IDN931XZ'
p2740
sg114
S''
sg13
S'NAMENLGXHQ'
p2741
sbasg148
S'IDECQV2L'
p2742
sg21
g2734
sg13
S''
sbsS'IDOQBE2H'
p2743
g1
(g105
g3
NtRp2744
(dp2745
g108
(lp2746
g1
(g110
g3
NtRp2747
(dp2748
g21
S'ID8EIXRT'
p2749
sg114
S''
sg13
S'NAMECX2EF6'
p2750
sbag1
(g110
g3
NtRp2751
(dp2752
g21
S'IDSEK3KR'
p2753
sg114
S''
sg13
S'NAMEZDJWTB'
p2754
sbasg148
S'ID5U9TPZ'
p2755
sg21
g2743
sg13
S''
sbsS'IDZ9THJT'
p2756
g1
(g105
g3
NtRp2757
(dp2758
g108
(lp2759
g1
(g110
g3
NtRp2760
(dp2761
g21
S'ID65TP3O'
p2762
sg114
S''
sg13
S'NAME3UN9ZO'
p2763
sbag1
(g110
g3
NtRp2764
(dp2765
g21
S'IDFSLJJJ'
p2766
sg114
S''
sg13
S'NAMERDEJH0'
p2767
sbasg148
S'IDE46IOD'
p2768
sg21
g2756
sg13
S''
sbsS'ID78G5JO'
p2769
g1
(g105
g3
NtRp2770
(dp2771
g108
(lp2772
g1
(g110
g3
NtRp2773
(dp2774
g21
S'IDOARJ6I'
p2775
sg114
S''
sg13
S'NAMEJ980JH'
p2776
sbag1
(g110
g3
NtRp2777
(dp2778
g21
S'IDXJ0LJB'
p2779
sg114
S''
sg13
S'NAME5273M6'
p2780
sbasg148
S'ID1CO7NB'
p2781
sg21
g2769
sg13
S''
sbsS'ID43YN3I'
p2782
g1
(g105
g3
NtRp2783
(dp2784
g108
(lp2785
g1
(g110
g3
NtRp2786
(dp2787
g21
S'ID29JJWG'
p2788
sg114
S''
sg13
S'NAMERLUDIH'
p2789
sbasg148
S'IDEPJ4ML'
p2790
sg21
g2782
sg13
S''
sbsS'IDC5742C'
p2791
g1
(g105
g3
NtRp2792
(dp2793
g108
(lp2794
sg148
S'IDSNCMOS'
p2795
sg21
g2791
sg13
S''
sbsg493
g485
sS'IDVYQKUQ'
p2796
g1
(g105
g3
NtRp2797
(dp2798
g108
(lp2799
g1
(g110
g3
NtRp2800
(dp2801
g21
S'IDYBI6X7'
p2802
sg114
S''
sg13
S'NAME26U0YK'
p2803
sbag1
(g110
g3
NtRp2804
(dp2805
g21
S'ID4XLATR'
p2806
sg114
S''
sg13
S'NAMEUIKOX7'
p2807
sbasg148
S'IDC9L678'
p2808
sg21
g2796
sg13
S''
sbsS'IDFLYAOU'
p2809
g1
(g105
g3
NtRp2810
(dp2811
g108
(lp2812
g1
(g110
g3
NtRp2813
(dp2814
g21
S'IDE3CQJL'
p2815
sg114
S''
sg13
S'NAMEB37ORZ'
p2816
sbag1
(g110
g3
NtRp2817
(dp2818
g21
S'IDVTXQRW'
p2819
sg114
S''
sg13
S'NAMEX3VW71'
p2820
sbag1
(g110
g3
NtRp2821
(dp2822
g21
S'IDNKS3AR'
p2823
sg114
S''
sg13
S'NAMEDBKBBX'
p2824
sbag1
(g110
g3
NtRp2825
(dp2826
g21
S'IDUSJV8H'
p2827
sg114
S''
sg13
S'NAMEH6EFSL'
p2828
sbag1
(g110
g3
NtRp2829
(dp2830
g21
S'IDUZ6GLV'
p2831
sg114
S''
sg13
S'NAMECG6HEN'
p2832
sbag1
(g110
g3
NtRp2833
(dp2834
g21
S'IDQ13IFZ'
p2835
sg114
S''
sg13
S'NAMEPKQOVF'
p2836
sbag1
(g110
g3
NtRp2837
(dp2838
g21
S'ID2VY7LR'
p2839
sg114
S''
sg13
S'NAME78ZAOL'
p2840
sbasg148
S'ID3X4K8Y'
p2841
sg21
g2809
sg13
S''
sbsg193
g181
sg341
g333
sS'ID2CO1S0'
p2842
g1
(g105
g3
NtRp2843
(dp2844
g108
(lp2845
g1
(g110
g3
NtRp2846
(dp2847
g21
S'ID22RIKG'
p2848
sg114
S''
sg13
S'NAMEA2M4D9'
p2849
sbag1
(g110
g3
NtRp2850
(dp2851
g21
S'IDWY7R4U'
p2852
sg114
S''
sg13
S'NAMECSVZXD'
p2853
sbag1
(g110
g3
NtRp2854
(dp2855
g21
S'IDM9DGPT'
p2856
sg114
S''
sg13
S'NAMEPFNXMT'
p2857
sbag1
(g110
g3
NtRp2858
(dp2859
g21
S'ID06XMMQ'
p2860
sg114
S''
sg13
S'NAMEB8A80G'
p2861
sbasg148
S'IDMZETZG'
p2862
sg21
g2842
sg13
S''
sbsg388
g380
sS'IDPZD6FG'
p2863
g1
(g105
g3
NtRp2864
(dp2865
g108
(lp2866
g1
(g110
g3
NtRp2867
(dp2868
g21
S'IDO68RIQ'
p2869
sg114
S''
sg13
S'NAMELWOI4W'
p2870
sbag1
(g110
g3
NtRp2871
(dp2872
g21
S'ID5SWHLX'
p2873
sg114
S''
sg13
S'NAME75GKQ5'
p2874
sbasg148
S'IDEYPEZE'
p2875
sg21
g2863
sg13
S''
sbsg264
g244
sg1681
g1673
sg1849
g1837
sg1094
g1086
sS'IDQH5REJ'
p2876
g1
(g105
g3
NtRp2877
(dp2878
g108
(lp2879
g1
(g110
g3
NtRp2880
(dp2881
g21
S'IDO5UFAX'
p2882
sg114
S''
sg13
S'NAME4OE0C4'
p2883
sbag1
(g110
g3
NtRp2884
(dp2885
g21
S'ID2SAFP1'
p2886
sg114
S''
sg13
S'NAMEOQ5HBK'
p2887
sbag1
(g110
g3
NtRp2888
(dp2889
g21
S'ID6UI60S'
p2890
sg114
S''
sg13
S'NAME5R7L67'
p2891
sbag1
(g110
g3
NtRp2892
(dp2893
g21
S'ID29GW6Z'
p2894
sg114
S''
sg13
S'NAMEINB642'
p2895
sbasg148
S'ID0VGQKK'
p2896
sg21
g2876
sg13
S''
sbsg304
g296
sS'ID10Z6O2'
p2897
g1
(g105
g3
NtRp2898
(dp2899
g108
(lp2900
g1
(g110
g3
NtRp2901
(dp2902
g21
S'ID8EHH0T'
p2903
sg114
S''
sg13
S'NAME3G0QU8'
p2904
sbag1
(g110
g3
NtRp2905
(dp2906
g21
S'ID8MJW4Z'
p2907
sg114
S''
sg13
S'NAMEAEAXDD'
p2908
sbasg148
S'ID9232B3'
p2909
sg21
g2897
sg13
S''
sbsS'IDMGJ50U'
p2910
g1
(g105
g3
NtRp2911
(dp2912
g108
(lp2913
sg148
S'IDD724F6'
p2914
sg21
g2910
sg13
S''
sbsS'ID63SY1J'
p2915
g1
(g105
g3
NtRp2916
(dp2917
g108
(lp2918
g1
(g110
g3
NtRp2919
(dp2920
g21
S'ID6TBI51'
p2921
sg114
S''
sg13
S'NAMEWGH7FD'
p2922
sbag1
(g110
g3
NtRp2923
(dp2924
g21
S'IDW2YNF6'
p2925
sg114
S''
sg13
S'NAMEIS0S3R'
p2926
sbag1
(g110
g3
NtRp2927
(dp2928
g21
S'ID3F47GL'
p2929
sg114
S''
sg13
S'NAMEVCXH88'
p2930
sbag1
(g110
g3
NtRp2931
(dp2932
g21
S'ID43DP66'
p2933
sg114
S''
sg13
S'NAME4YVC4E'
p2934
sbag1
(g110
g3
NtRp2935
(dp2936
g21
S'IDXAVSOI'
p2937
sg114
S''
sg13
S'NAMEBV3WK6'
p2938
sbag1
(g110
g3
NtRp2939
(dp2940
g21
S'IDUC306W'
p2941
sg114
S''
sg13
S'NAMEPPD3GE'
p2942
sbag1
(g110
g3
NtRp2943
(dp2944
g21
S'IDJ346H7'
p2945
sg114
S''
sg13
S'NAMEOB0YGU'
p2946
sbag1
(g110
g3
NtRp2947
(dp2948
g21
S'ID0YUZXH'
p2949
sg114
S''
sg13
S'NAME6FA1MB'
p2950
sbasg148
S'IDQL0P1A'
p2951
sg21
g2915
sg13
S''
sbsg1732
g1720
sg1809
g1797
sS'ID65P6F0'
p2952
g1
(g105
g3
NtRp2953
(dp2954
g108
(lp2955
g1
(g110
g3
NtRp2956
(dp2957
g21
S'IDTO1HP9'
p2958
sg114
S''
sg13
S'NAMEDLOXU4'
p2959
sbag1
(g110
g3
NtRp2960
(dp2961
g21
S'IDEQ7VFC'
p2962
sg114
S''
sg13
S'NAMEHFF8C5'
p2963
sbasg148
S'ID0Z6FI9'
p2964
sg21
g2952
sg13
S''
sbsS'IDBXRQ37'
p2965
g1
(g105
g3
NtRp2966
(dp2967
g108
(lp2968
g1
(g110
g3
NtRp2969
(dp2970
g21
S'IDBJLSHF'
p2971
sg114
S''
sg13
S'NAMEFUTYCN'
p2972
sbag1
(g110
g3
NtRp2973
(dp2974
g21
S'IDWU4ARX'
p2975
sg114
S''
sg13
S'NAMEH09UWS'
p2976
sbag1
(g110
g3
NtRp2977
(dp2978
g21
S'ID8XAHM7'
p2979
sg114
S''
sg13
S'NAME7VRR29'
p2980
sbag1
(g110
g3
NtRp2981
(dp2982
g21
S'ID1WJZRW'
p2983
sg114
S''
sg13
S'NAME55YZE8'
p2984
sbag1
(g110
g3
NtRp2985
(dp2986
g21
S'IDATUQLC'
p2987
sg114
S''
sg13
S'NAMEEZ0R09'
p2988
sbasg148
S'IDV1D75E'
p2989
sg21
g2965
sg13
S''
sbsS'IDVB9E5G'
p2990
g1
(g105
g3
NtRp2991
(dp2992
g108
(lp2993
g1
(g110
g3
NtRp2994
(dp2995
g21
S'ID8FXD8O'
p2996
sg114
S''
sg13
S'NAME7MVO1N'
p2997
sbasg148
S'ID2W7G8F'
p2998
sg21
g2990
sg13
S''
sbsS'IDBWFRJ2'
p2999
g1
(g105
g3
NtRp3000
(dp3001
g108
(lp3002
g1
(g110
g3
NtRp3003
(dp3004
g21
S'IDDC74WJ'
p3005
sg114
S''
sg13
S'NAMET4GV84'
p3006
sbag1
(g110
g3
NtRp3007
(dp3008
g21
S'IDAY1E49'
p3009
sg114
S''
sg13
S'NAME072Z8D'
p3010
sbag1
(g110
g3
NtRp3011
(dp3012
g21
S'ID5IU3L0'
p3013
sg114
S''
sg13
S'NAME860V6K'
p3014
sbag1
(g110
g3
NtRp3015
(dp3016
g21
S'IDCGIV8G'
p3017
sg114
S''
sg13
S'NAME9FVC1M'
p3018
sbag1
(g110
g3
NtRp3019
(dp3020
g21
S'ID6FTILJ'
p3021
sg114
S''
sg13
S'NAMEVXOLK8'
p3022
sbag1
(g110
g3
NtRp3023
(dp3024
g21
S'IDJSS19X'
p3025
sg114
S''
sg13
S'NAME7MVMLT'
p3026
sbag1
(g110
g3
NtRp3027
(dp3028
g21
S'ID3LN8JS'
p3029
sg114
S''
sg13
S'NAMEIYJ276'
p3030
sbag1
(g110
g3
NtRp3031
(dp3032
g21
S'ID601XPH'
p3033
sg114
S''
sg13
S'NAME0FP7D3'
p3034
sbasg148
S'IDZVRBAX'
p3035
sg21
g2999
sg13
S''
sbsS'ID4I77WK'
p3036
g1
(g105
g3
NtRp3037
(dp3038
g108
(lp3039
g1
(g110
g3
NtRp3040
(dp3041
g21
S'ID2Z0BGZ'
p3042
sg114
S''
sg13
S'NAMEQ1ZTXQ'
p3043
sbag1
(g110
g3
NtRp3044
(dp3045
g21
S'ID4XQPFT'
p3046
sg114
S''
sg13
S'NAMEO0PBL2'
p3047
sbag1
(g110
g3
NtRp3048
(dp3049
g21
S'IDF531ST'
p3050
sg114
S''
sg13
S'NAMEXXLSCC'
p3051
sbag1
(g110
g3
NtRp3052
(dp3053
g21
S'ID6O6LXN'
p3054
sg114
S''
sg13
S'NAME8TP1YJ'
p3055
sbag1
(g110
g3
NtRp3056
(dp3057
g21
S'IDR8CG9C'
p3058
sg114
S''
sg13
S'NAMEBIFJCJ'
p3059
sbag1
(g110
g3
NtRp3060
(dp3061
g21
S'ID2XRGJR'
p3062
sg114
S''
sg13
S'NAMET540L4'
p3063
sbag1
(g110
g3
NtRp3064
(dp3065
g21
S'IDJFA6Z4'
p3066
sg114
S''
sg13
S'NAMEI19W83'
p3067
sbag1
(g110
g3
NtRp3068
(dp3069
g21
S'ID37956A'
p3070
sg114
S''
sg13
S'NAMEJABPB1'
p3071
sbag1
(g110
g3
NtRp3072
(dp3073
g21
S'IDBFFJ5N'
p3074
sg114
S''
sg13
S'NAMETIZPK5'
p3075
sbag1
(g110
g3
NtRp3076
(dp3077
g21
S'ID90FGM3'
p3078
sg114
S''
sg13
S'NAMEDBJ5DU'
p3079
sbag1
(g110
g3
NtRp3080
(dp3081
g21
S'ID1AB7O6'
p3082
sg114
S''
sg13
S'NAMEOM5T9T'
p3083
sbag1
(g110
g3
NtRp3084
(dp3085
g21
S'IDWHH3YT'
p3086
sg114
S''
sg13
S'NAMEFNA527'
p3087
sbag1
(g110
g3
NtRp3088
(dp3089
g21
S'IDV5HENA'
p3090
sg114
S''
sg13
S'NAMEIHPPBS'
p3091
sbag1
(g110
g3
NtRp3092
(dp3093
g21
S'IDFJK70N'
p3094
sg114
S''
sg13
S'NAMENY9JIL'
p3095
sbag1
(g110
g3
NtRp3096
(dp3097
g21
S'IDJ66MMJ'
p3098
sg114
S''
sg13
S'NAME27HE6V'
p3099
sbag1
(g110
g3
NtRp3100
(dp3101
g21
S'ID79CLEA'
p3102
sg114
S''
sg13
S'NAMEK1BPGE'
p3103
sbag1
(g110
g3
NtRp3104
(dp3105
g21
S'ID71IXDV'
p3106
sg114
S''
sg13
S'NAMECD15S4'
p3107
sbag1
(g110
g3
NtRp3108
(dp3109
g21
S'IDXNE9M5'
p3110
sg114
S''
sg13
S'NAME9D3MST'
p3111
sbag1
(g110
g3
NtRp3112
(dp3113
g21
S'ID01UL19'
p3114
sg114
S''
sg13
S'NAME56KC41'
p3115
sbasg148
S'IDI8CI9G'
p3116
sg21
g3036
sg13
S''
sbsS'IDN3VPZD'
p3117
g1
(g105
g3
NtRp3118
(dp3119
g108
(lp3120
g1
(g110
g3
NtRp3121
(dp3122
g21
S'IDUR2CT3'
p3123
sg114
S''
sg13
S'NAMEOMAFB7'
p3124
sbag1
(g110
g3
NtRp3125
(dp3126
g21
S'ID3AZ308'
p3127
sg114
S''
sg13
S'NAMEIKQIQZ'
p3128
sbag1
(g110
g3
NtRp3129
(dp3130
g21
S'ID2JH568'
p3131
sg114
S''
sg13
S'NAMEFXJGH1'
p3132
sbag1
(g110
g3
NtRp3133
(dp3134
g21
S'IDK16MXK'
p3135
sg114
S''
sg13
S'NAMEFGYYL9'
p3136
sbag1
(g110
g3
NtRp3137
(dp3138
g21
S'ID1BR3XA'
p3139
sg114
S''
sg13
S'NAMEN63OE9'
p3140
sbag1
(g110
g3
NtRp3141
(dp3142
g21
S'IDV642JZ'
p3143
sg114
S''
sg13
S'NAMEMOZAEO'
p3144
sbag1
(g110
g3
NtRp3145
(dp3146
g21
S'IDV6MF1T'
p3147
sg114
S''
sg13
S'NAMEILE3BA'
p3148
sbag1
(g110
g3
NtRp3149
(dp3150
g21
S'IDJ5QK69'
p3151
sg114
S''
sg13
S'NAME5COB5P'
p3152
sbasg148
S'IDQMV641'
p3153
sg21
g3117
sg13
S''
sbsS'IDU4MV8E'
p3154
g1
(g105
g3
NtRp3155
(dp3156
g108
(lp3157
g1
(g110
g3
NtRp3158
(dp3159
g21
S'ID7T6S7I'
p3160
sg114
S''
sg13
S'NAME7XKCNC'
p3161
sbag1
(g110
g3
NtRp3162
(dp3163
g21
S'IDEI8426'
p3164
sg114
S''
sg13
S'NAMEQ0W8SD'
p3165
sbag1
(g110
g3
NtRp3166
(dp3167
g21
S'IDOOMV99'
p3168
sg114
S''
sg13
S'NAMEP41KZL'
p3169
sbasg148
S'IDZSGKFA'
p3170
sg21
g3154
sg13
S''
sbsS'IDZB9YNH'
p3171
g1
(g105
g3
NtRp3172
(dp3173
g108
(lp3174
g1
(g110
g3
NtRp3175
(dp3176
g21
S'IDMZQWCQ'
p3177
sg114
S''
sg13
S'NAMEL54BHV'
p3178
sbasg148
S'IDPK22HX'
p3179
sg21
g3171
sg13
S''
sbsg1889
g1869
sg1015
g1007
sS'IDNEZ7JU'
p3180
g1
(g105
g3
NtRp3181
(dp3182
g108
(lp3183
g1
(g110
g3
NtRp3184
(dp3185
g21
S'ID1BPMGK'
p3186
sg114
S''
sg13
S'NAMEV2TZN9'
p3187
sbag1
(g110
g3
NtRp3188
(dp3189
g21
S'ID4C4X67'
p3190
sg114
S''
sg13
S'NAME1T0916'
p3191
sbag1
(g110
g3
NtRp3192
(dp3193
g21
S'IDLLS5CT'
p3194
sg114
S''
sg13
S'NAME0O109D'
p3195
sbasg148
S'IDL0U6KG'
p3196
sg21
g3180
sg13
S''
sbsg444
g436
sg180
g172
sS'IDOLIZ1K'
p3197
g1
(g105
g3
NtRp3198
(dp3199
g108
(lp3200
g1
(g110
g3
NtRp3201
(dp3202
g21
S'ID5CDOCQ'
p3203
sg114
S''
sg13
S'NAMEEYS16A'
p3204
sbag1
(g110
g3
NtRp3205
(dp3206
g21
S'IDJ9ETOT'
p3207
sg114
S''
sg13
S'NAMEP0X7XX'
p3208
sbag1
(g110
g3
NtRp3209
(dp3210
g21
S'IDAC10DV'
p3211
sg114
S''
sg13
S'NAMEABXZLH'
p3212
sbag1
(g110
g3
NtRp3213
(dp3214
g21
S'IDEXNJFA'
p3215
sg114
S''
sg13
S'NAMEPI9V4M'
p3216
sbag1
(g110
g3
NtRp3217
(dp3218
g21
S'ID9D3VW7'
p3219
sg114
S''
sg13
S'NAMEYYFXVW'
p3220
sbag1
(g110
g3
NtRp3221
(dp3222
g21
S'ID300NJU'
p3223
sg114
S''
sg13
S'NAME2FO7KV'
p3224
sbag1
(g110
g3
NtRp3225
(dp3226
g21
S'IDY0B27B'
p3227
sg114
S''
sg13
S'NAMEL61PPV'
p3228
sbasg148
S'IDSS4HBN'
p3229
sg21
g3197
sg13
S''
sbsg1836
g1816
sg1719
g1703
sg404
g396
sg1108
g1100
sS'IDA5FDID'
p3230
g1
(g105
g3
NtRp3231
(dp3232
g108
(lp3233
g1
(g110
g3
NtRp3234
(dp3235
g21
S'IDFLUMJB'
p3236
sg114
S''
sg13
S'NAMEJLXJ85'
p3237
sbasg148
S'IDF7ED9T'
p3238
sg21
g3230
sg13
S''
sbsS'IDIO24WK'
p3239
g1
(g105
g3
NtRp3240
(dp3241
g108
(lp3242
g1
(g110
g3
NtRp3243
(dp3244
g21
S'IDLXUQQS'
p3245
sg114
S''
sg13
S'NAME2A30KS'
p3246
sbasg148
S'ID86A7LG'
p3247
sg21
g3239
sg13
S''
sbsg1702
g1682
sS'ID9GVIZR'
p3248
g1
(g105
g3
NtRp3249
(dp3250
g108
(lp3251
sg148
S'IDMBPZ53'
p3252
sg21
g3248
sg13
S''
sbsS'ID8IECVA'
p3253
g1
(g105
g3
NtRp3254
(dp3255
g108
(lp3256
g1
(g110
g3
NtRp3257
(dp3258
g21
S'IDUMDTXD'
p3259
sg114
S''
sg13
S'NAME3GF162'
p3260
sbag1
(g110
g3
NtRp3261
(dp3262
g21
S'IDES48NZ'
p3263
sg114
S''
sg13
S'NAMEA4E3Y9'
p3264
sbasg148
S'IDHBBSZX'
p3265
sg21
g3253
sg13
S''
sbsS'IDBL1F8J'
p3266
g1
(g105
g3
NtRp3267
(dp3268
g108
(lp3269
g1
(g110
g3
NtRp3270
(dp3271
g21
S'ID2G5SJM'
p3272
sg114
S''
sg13
S'NAMEBUDDAG'
p3273
sbasg148
S'ID53OPAL'
p3274
sg21
g3266
sg13
S''
sbsg150
g106
sg1001
g989
sg361
g349
sS'IDE77QDF'
p3275
g1
(g105
g3
NtRp3276
(dp3277
g108
(lp3278
g1
(g110
g3
NtRp3279
(dp3280
g21
S'IDDBWATS'
p3281
sg114
S''
sg13
S'NAMEZCPONS'
p3282
sbasg148
S'IDN9W5IJ'
p3283
sg21
g3275
sg13
S''
sbsg171
g151
sg295
g275
sS'IDZGJKF0'
p3284
g1
(g105
g3
NtRp3285
(dp3286
g108
(lp3287
g1
(g110
g3
NtRp3288
(dp3289
g21
S'ID1ENJ9R'
p3290
sg114
S''
sg13
S'NAMEN600AW'
p3291
sbasg148
S'IDGYX7H1'
p3292
sg21
g3284
sg13
S''
sbsg963
g955
sg374
g362
sS'IDJUHR58'
p3293
g1
(g105
g3
NtRp3294
(dp3295
g108
(lp3296
g1
(g110
g3
NtRp3297
(dp3298
g21
S'IDE8ZJOG'
p3299
sg114
S''
sg13
S'NAMEGHTN5L'
p3300
sbag1
(g110
g3
NtRp3301
(dp3302
g21
S'ID22BG0G'
p3303
sg114
S''
sg13
S'NAMEC1TBR5'
p3304
sbag1
(g110
g3
NtRp3305
(dp3306
g21
S'IDLS5D1L'
p3307
sg114
S''
sg13
S'NAME6P2X0M'
p3308
sbag1
(g110
g3
NtRp3309
(dp3310
g21
S'IDAGS369'
p3311
sg114
S''
sg13
S'NAME8UVKYS'
p3312
sbasg148
S'IDH6HTFB'
p3313
sg21
g3293
sg13
S''
sbsg475
g467
sS'ID04C06W'
p3314
g1
(g105
g3
NtRp3315
(dp3316
g108
(lp3317
g1
(g110
g3
NtRp3318
(dp3319
g21
S'IDYTWSIC'
p3320
sg114
S''
sg13
S'NAMEOQP4JU'
p3321
sbasg148
S'IDI35FT6'
p3322
sg21
g3314
sg13
S''
sbsg1066
g1058
sS'ID31O91Q'
p3323
g1
(g105
g3
NtRp3324
(dp3325
g108
(lp3326
g1
(g110
g3
NtRp3327
(dp3328
g21
S'IDXH4OP0'
p3329
sg114
S''
sg13
S'NAMEOI1D09'
p3330
sbasg148
S'IDZNZHIC'
p3331
sg21
g3323
sg13
S''
sbsS'IDNMYYQJ'
p3332
g1
(g105
g3
NtRp3333
(dp3334
g108
(lp3335
g1
(g110
g3
NtRp3336
(dp3337
g21
S'IDFGZD6U'
p3338
sg114
S''
sg13
S'NAMEX6WMLS'
p3339
sbag1
(g110
g3
NtRp3340
(dp3341
g21
S'IDWAKFS4'
p3342
sg114
S''
sg13
S'NAMEUN7W9L'
p3343
sbag1
(g110
g3
NtRp3344
(dp3345
g21
S'IDX6ZLM8'
p3346
sg114
S''
sg13
S'NAME8KVMP8'
p3347
sbag1
(g110
g3
NtRp3348
(dp3349
g21
S'IDCBAY57'
p3350
sg114
S''
sg13
S'NAMEDAJF3G'
p3351
sbag1
(g110
g3
NtRp3352
(dp3353
g21
S'IDNJZ3BR'
p3354
sg114
S''
sg13
S'NAME4RC1K8'
p3355
sbasg148
S'IDX4RDK1'
p3356
sg21
g3332
sg13
S''
sbsg1080
g1072
sg431
g423
sS'ID7M2HZE'
p3357
g1
(g105
g3
NtRp3358
(dp3359
g108
(lp3360
g1
(g110
g3
NtRp3361
(dp3362
g21
S'IDUAP3SY'
p3363
sg114
S''
sg13
S'NAMENUPIFM'
p3364
sbag1
(g110
g3
NtRp3365
(dp3366
g21
S'ID2U1EWO'
p3367
sg114
S''
sg13
S'NAMERZ6CAW'
p3368
sbag1
(g110
g3
NtRp3369
(dp3370
g21
S'ID6KNU0V'
p3371
sg114
S''
sg13
S'NAMEIIK1Y9'
p3372
sbag1
(g110
g3
NtRp3373
(dp3374
g21
S'IDF4LY15'
p3375
sg114
S''
sg13
S'NAME14K69W'
p3376
sbag1
(g110
g3
NtRp3377
(dp3378
g21
S'ID0AB8R7'
p3379
sg114
S''
sg13
S'NAMEWM81VG'
p3380
sbag1
(g110
g3
NtRp3381
(dp3382
g21
S'ID0QI4TB'
p3383
sg114
S''
sg13
S'NAMEMNA4AW'
p3384
sbag1
(g110
g3
NtRp3385
(dp3386
g21
S'IDNHWPAV'
p3387
sg114
S''
sg13
S'NAMENTKB2I'
p3388
sbasg148
S'IDKBBZ51'
p3389
sg21
g3357
sg13
S''
sbsS'IDTK3A7Q'
p3390
g1
(g105
g3
NtRp3391
(dp3392
g108
(lp3393
g1
(g110
g3
NtRp3394
(dp3395
g21
S'IDOPG8RO'
p3396
sg114
S''
sg13
S'NAMEX6K6YP'
p3397
sbasg148
S'ID6C11P4'
p3398
sg21
g3390
sg13
S''
sbsg1790
g1782
sS'ID43GZ7O'
p3399
g1
(g105
g3
NtRp3400
(dp3401
g108
(lp3402
g1
(g110
g3
NtRp3403
(dp3404
g21
S'ID5GUMIL'
p3405
sg114
S''
sg13
S'NAMEHZ95C2'
p3406
sbag1
(g110
g3
NtRp3407
(dp3408
g21
S'IDJ065H7'
p3409
sg114
S''
sg13
S'NAMEULK7PF'
p3410
sbasg148
S'IDQ1PUTB'
p3411
sg21
g3399
sg13
S''
sbsS'IDB1Q8ZF'
p3412
g1
(g105
g3
NtRp3413
(dp3414
g108
(lp3415
g1
(g110
g3
NtRp3416
(dp3417
g21
S'ID4YTJO2'
p3418
sg114
S''
sg13
S'NAMEIZP7FP'
p3419
sbag1
(g110
g3
NtRp3420
(dp3421
g21
S'IDVPCW1K'
p3422
sg114
S''
sg13
S'NAMEHZQ7T7'
p3423
sbag1
(g110
g3
NtRp3424
(dp3425
g21
S'IDEO9M4V'
p3426
sg114
S''
sg13
S'NAME9VMVSJ'
p3427
sbag1
(g110
g3
NtRp3428
(dp3429
g21
S'ID7LJJTM'
p3430
sg114
S''
sg13
S'NAMENC9C5L'
p3431
sbag1
(g110
g3
NtRp3432
(dp3433
g21
S'IDK06DHD'
p3434
sg114
S''
sg13
S'NAME8JA1NT'
p3435
sbag1
(g110
g3
NtRp3436
(dp3437
g21
S'IDYV1X71'
p3438
sg114
S''
sg13
S'NAMEEX7FI6'
p3439
sbasg148
S'ID9RDAB6'
p3440
sg21
g3412
sg13
S''
sbsS'ID592ARA'
p3441
g1
(g105
g3
NtRp3442
(dp3443
g108
(lp3444
g1
(g110
g3
NtRp3445
(dp3446
g21
S'IDGYVZXW'
p3447
sg114
S''
sg13
S'NAME87LF2N'
p3448
sbag1
(g110
g3
NtRp3449
(dp3450
g21
S'IDDR9LKN'
p3451
sg114
S''
sg13
S'NAMEMQWGOU'
p3452
sbasg148
S'IDZ1I09D'
p3453
sg21
g3441
sg13
S''
sbsS'IDJHS8UR'
p3454
g1
(g105
g3
NtRp3455
(dp3456
g108
(lp3457
g1
(g110
g3
NtRp3458
(dp3459
g21
S'IDTIOSCH'
p3460
sg114
S''
sg13
S'NAME72V3XO'
p3461
sbasg148
S'IDWFVAI8'
p3462
sg21
g3454
sg13
S''
sbsg1745
g1733
sg983
g975
sS'ID1UIWSQ'
p3463
g1
(g105
g3
NtRp3464
(dp3465
g108
(lp3466
g1
(g110
g3
NtRp3467
(dp3468
g21
S'IDQP7W9M'
p3469
sg114
S''
sg13
S'NAMEWGPEVE'
p3470
sbasg148
S'IDCI74CY'
p3471
sg21
g3463
sg13
S''
sbsS'ID5YC6Z6'
p3472
g1
(g105
g3
NtRp3473
(dp3474
g108
(lp3475
g1
(g110
g3
NtRp3476
(dp3477
g21
S'IDTPTPCP'
p3478
sg114
S''
sg13
S'NAMEIKUHIO'
p3479
sbag1
(g110
g3
NtRp3480
(dp3481
g21
S'ID4QZCAC'
p3482
sg114
S''
sg13
S'NAMEKOCDQH'
p3483
sbag1
(g110
g3
NtRp3484
(dp3485
g21
S'IDBBQO0K'
p3486
sg114
S''
sg13
S'NAMETKMY22'
p3487
sbag1
(g110
g3
NtRp3488
(dp3489
g21
S'IDES4BOH'
p3490
sg114
S''
sg13
S'NAMEZ1X0H3'
p3491
sbag1
(g110
g3
NtRp3492
(dp3493
g21
S'ID5TUX9R'
p3494
sg114
S''
sg13
S'NAMENQHS1Z'
p3495
sbag1
(g110
g3
NtRp3496
(dp3497
g21
S'ID0DQTWP'
p3498
sg114
S''
sg13
S'NAMENDI93Z'
p3499
sbag1
(g110
g3
NtRp3500
(dp3501
g21
S'IDX2UY51'
p3502
sg114
S''
sg13
S'NAMEV9XJWL'
p3503
sbag1
(g110
g3
NtRp3504
(dp3505
g21
S'ID6N641B'
p3506
sg114
S''
sg13
S'NAMEPYPS76'
p3507
sbag1
(g110
g3
NtRp3508
(dp3509
g21
S'IDVWXS3Y'
p3510
sg114
S''
sg13
S'NAMEAAWD0L'
p3511
sbasg148
S'ID5FYUEE'
p3512
sg21
g3472
sg13
S''
sbsS'IDSGO7CU'
p3513
g1
(g105
g3
NtRp3514
(dp3515
g108
(lp3516
g1
(g110
g3
NtRp3517
(dp3518
g21
S'IDIPACY0'
p3519
sg114
S''
sg13
S'NAMELZVS3K'
p3520
sbasg148
S'IDW31BC0'
p3521
sg21
g3513
sg13
S''
sbsS'IDXYQ3XZ'
p3522
g1
(g105
g3
NtRp3523
(dp3524
g108
(lp3525
sg148
S'ID3DC28G'
p3526
sg21
g3522
sg13
S''
sbsS'IDDQJJF6'
p3527
g1
(g105
g3
NtRp3528
(dp3529
g108
(lp3530
g1
(g110
g3
NtRp3531
(dp3532
g21
S'IDNAWA2C'
p3533
sg114
S''
sg13
S'NAMEMNO050'
p3534
sbag1
(g110
g3
NtRp3535
(dp3536
g21
S'ID8DCFHQ'
p3537
sg114
S''
sg13
S'NAMEFBV384'
p3538
sbag1
(g110
g3
NtRp3539
(dp3540
g21
S'ID8RDYTU'
p3541
sg114
S''
sg13
S'NAME9WH69X'
p3542
sbag1
(g110
g3
NtRp3543
(dp3544
g21
S'ID3Y4XSZ'
p3545
sg114
S''
sg13
S'NAMEC7VPKW'
p3546
sbag1
(g110
g3
NtRp3547
(dp3548
g21
S'IDA07B0L'
p3549
sg114
S''
sg13
S'NAMEKP1EN2'
p3550
sbasg148
S'IDZEI71U'
p3551
sg21
g3527
sg13
S''
sbsg1029
g1021
sg1762
g1746
sS'IDI5YXYR'
p3552
g1
(g105
g3
NtRp3553
(dp3554
g108
(lp3555
sg148
S'IDY0G9CN'
p3556
sg21
g3552
sg13
S''
sbsS'IDD1K9IP'
p3557
g1
(g105
g3
NtRp3558
(dp3559
g108
(lp3560
g1
(g110
g3
NtRp3561
(dp3562
g21
S'ID0GEIAX'
p3563
sg114
S''
sg13
S'NAMEE7KF5P'
p3564
sbasg148
S'IDEUUWSI'
p3565
sg21
g3557
sg13
S''
sbsS'IDEKNX9K'
p3566
g1
(g105
g3
NtRp3567
(dp3568
g108
(lp3569
g1
(g110
g3
NtRp3570
(dp3571
g21
S'IDS4A6CE'
p3572
sg114
S''
sg13
S'NAME1V7P51'
p3573
sbasg148
S'IDFCRYYL'
p3574
sg21
g3566
sg13
S''
sbsg1781
g1773
sS'IDYORT2W'
p3575
g1
(g105
g3
NtRp3576
(dp3577
g108
(lp3578
g1
(g110
g3
NtRp3579
(dp3580
g21
S'IDS717DB'
p3581
sg114
S''
sg13
S'NAMEWI5VSY'
p3582
sbasg148
S'IDGUVYA1'
p3583
sg21
g3575
sg13
S''
sbsg1864
g1856
sS'ID1XN4VK'
p3584
g1
(g105
g3
NtRp3585
(dp3586
g108
(lp3587
g1
(g110
g3
NtRp3588
(dp3589
g21
S'IDS6EZ11'
p3590
sg114
S''
sg13
S'NAMED1QT9C'
p3591
sbasg148
S'IDZ4MF6D'
p3592
sg21
g3584
sg13
S''
sbsS'ID1S55EY'
p3593
g1
(g105
g3
NtRp3594
(dp3595
g108
(lp3596
g1
(g110
g3
NtRp3597
(dp3598
g21
S'IDRNE02X'
p3599
sg114
S''
sg13
S'NAMEH2TFOA'
p3600
sbag1
(g110
g3
NtRp3601
(dp3602
g21
S'ID70L6UA'
p3603
sg114
S''
sg13
S'NAME37ZUA4'
p3604
sbag1
(g110
g3
NtRp3605
(dp3606
g21
S'IDZU8VW8'
p3607
sg114
S''
sg13
S'NAMEQ56BI7'
p3608
sbasg148
S'IDG570QA'
p3609
sg21
g3593
sg13
S''
sbsg460
g452
sS'IDCVKH5Q'
p3610
g1
(g105
g3
NtRp3611
(dp3612
g108
(lp3613
g1
(g110
g3
NtRp3614
(dp3615
g21
S'IDAART9C'
p3616
sg114
S''
sg13
S'NAME85ZP9I'
p3617
sbag1
(g110
g3
NtRp3618
(dp3619
g21
S'IDY9OVQY'
p3620
sg114
S''
sg13
S'NAME745FV2'
p3621
sbag1
(g110
g3
NtRp3622
(dp3623
g21
S'IDM8KSJB'
p3624
sg114
S''
sg13
S'NAME1CY7Q3'
p3625
sbag1
(g110
g3
NtRp3626
(dp3627
g21
S'ID5ZKKB7'
p3628
sg114
S''
sg13
S'NAMETB9XBF'
p3629
sbag1
(g110
g3
NtRp3630
(dp3631
g21
S'IDRTZ6UZ'
p3632
sg114
S''
sg13
S'NAMETJ1RJ5'
p3633
sbag1
(g110
g3
NtRp3634
(dp3635
g21
S'IDLZZROZ'
p3636
sg114
S''
sg13
S'NAME211DGR'
p3637
sbag1
(g110
g3
NtRp3638
(dp3639
g21
S'IDN31MR5'
p3640
sg114
S''
sg13
S'NAMEGPE450'
p3641
sbag1
(g110
g3
NtRp3642
(dp3643
g21
S'IDDN2PQA'
p3644
sg114
S''
sg13
S'NAME6R67KJ'
p3645
sbag1
(g110
g3
NtRp3646
(dp3647
g21
S'IDBOQI9H'
p3648
sg114
S''
sg13
S'NAMEPLK5MW'
p3649
sbasg148
S'ID16EGB9'
p3650
sg21
g3610
sg13
S''
sbsS'IDBUE1Y0'
p3651
g1
(g105
g3
NtRp3652
(dp3653
g108
(lp3654
sg148
S'IDHMX5PK'
p3655
sg21
g3651
sg13
S''
sbsS'IDEBVKCY'
p3656
g1
(g105
g3
NtRp3657
(dp3658
g108
(lp3659
g1
(g110
g3
NtRp3660
(dp3661
g21
S'IDRA0RA7'
p3662
sg114
S''
sg13
S'NAMENOUZJK'
p3663
sbag1
(g110
g3
NtRp3664
(dp3665
g21
S'ID38BZHJ'
p3666
sg114
S''
sg13
S'NAMESFAMXQ'
p3667
sbag1
(g110
g3
NtRp3668
(dp3669
g21
S'ID7XNYUP'
p3670
sg114
S''
sg13
S'NAME61J0T9'
p3671
sbag1
(g110
g3
NtRp3672
(dp3673
g21
S'IDXRXDHM'
p3674
sg114
S''
sg13
S'NAME7NXGRB'
p3675
sbasg148
S'IDVA5XOP'
p3676
sg21
g3656
sg13
S''
sbssS'resources'
p3677
(dp3678
S'IDWWH0ZH'
p3679
g1
(g10
g3
NtRp3680
(dp3681
g13
S'IDSLIYYB'
p3682
sg15
I1
sg16
(lp3683
sg18
I1
sg19
(lp3684
g1816
ag1733
ag1720
ag1703
ag1682
ag1673
ag1746
asg21
g3679
sg22
I00
sbsS'IDJWG5FR'
p3685
g1
(g10
g3
NtRp3686
(dp3687
g13
S'IDBM2NST'
p3688
sg15
I1
sg16
(lp3689
sg18
I1
sg19
(lp3690
g296
ag151
ag305
ag318
ag194
ag211
ag244
ag275
ag106
asg21
g3685
sg22
I00
sbsS'ID3FH460'
p3691
g1
(g10
g3
NtRp3692
(dp3693
g13
S'IDZKTYKD'
p3694
sg15
I1
sg16
(lp3695
sg18
I1
sg19
(lp3696
g3198
ag3155
ag3231
ag2864
ag3198
ag2744
ag3155
asg21
g3691
sg22
I00
sbsg269
g100
sS'ID6994HQ'
p3697
g1
(g10
g3
NtRp3698
(dp3699
g13
S'ID0TLR0V'
p3700
sg15
I1
sg16
(lp3701
sg18
I1
sg19
(lp3702
g2864
ag3198
ag2744
ag3155
ag3231
ag2864
ag3198
ag2744
ag3155
asg21
g3697
sg22
I00
sbsS'IDBEL53U'
p3703
g1
(g10
g3
NtRp3704
(dp3705
g13
S'ID6UXU5O'
p3706
sg15
I1
sg16
(lp3707
sg18
I1
sg19
(lp3708
g3198
ag3155
ag2735
ag2864
ag3198
ag2744
ag3155
asg21
g3703
sg22
I00
sbsS'IDQRXAMS'
p3709
g1
(g10
g3
NtRp3710
(dp3711
g13
S'ID5OQ9TE'
p3712
sg15
I1
sg16
(lp3713
sg18
I1
sg19
(lp3714
g2652
ag1746
ag1733
ag1682
ag1816
ag1682
ag1746
ag1816
ag1733
asg21
g3709
sg22
I00
sbsS'IDFLGX42'
p3715
g1
(g10
g3
NtRp3716
(dp3717
g13
S'ID57JOSH'
p3718
sg15
I1
sg16
(lp3719
sg18
I1
sg19
(lp3720
g1746
ag1682
ag1797
ag1682
ag1746
asg21
g3715
sg22
I00
sbsg9
g11
sS'IDT63AZ4'
p3721
g1
(g10
g3
NtRp3722
(dp3723
g13
S'IDLEAF1K'
p3724
sg15
I0
sg16
(lp3725
sg18
I0
sg19
(lp3726
g485
ag194
ag408
ag414
asg21
g3721
sg22
I00
sbsS'ID3AW6YA'
p3727
g1
(g10
g3
NtRp3728
(dp3729
g13
S'ID4WMDPY'
p3730
sg15
I1
sg16
(lp3731
sg18
I1
sg19
(lp3732
g106
ag151
ag1100
ag194
ag211
ag414
asg21
g3727
sg22
I00
sbsg1356
g1351
sS'IDTP8CN0'
p3733
g1
(g10
g3
NtRp3734
(dp3735
g13
S'IDNMJ8FY'
p3736
sg15
I1
sg16
(lp3737
sg18
I1
sg19
(lp3738
g244
ag106
ag151
ag172
ag181
ag194
ag211
ag411
asg21
g3733
sg22
I00
sbsS'IDNYYZ4F'
p3739
g1
(g10
g3
NtRp3740
(dp3741
g13
S'IDN2HZ7O'
p3742
sg15
I1
sg16
(lp3743
sg18
I1
sg19
(lp3744
g1816
ag1733
ag1720
ag1703
ag1682
ag1673
ag1746
asg21
g3739
sg22
I00
sbsS'IDFNQ0RH'
p3745
g1
(g10
g3
NtRp3746
(dp3747
g13
S'IDEN5GKG'
p3748
sg15
I1
sg16
(lp3749
sg18
I1
sg19
(lp3750
g194
ag211
ag244
ag275
ag106
ag296
ag151
ag305
ag318
ag194
ag244
ag106
ag151
ag2877
ag296
asg21
g3745
sg22
I00
sbsS'IDZ8L7JP'
p3751
g1
(g10
g3
NtRp3752
(dp3753
g13
S'IDINRE6A'
p3754
sg15
I1
sg16
(lp3755
sg18
I1
sg19
(lp3756
g1816
ag1733
ag1720
ag1703
ag1682
ag1673
ag1746
asg21
g3751
sg22
I00
sbsS'IDD8P4SP'
p3757
g1
(g10
g3
NtRp3758
(dp3759
g13
S'ID6LVVU3'
p3760
sg15
I1
sg16
(lp3761
sg18
I1
sg19
(lp3762
g1816
ag1733
ag1720
ag1703
ag1682
ag1673
ag1746
asg21
g3757
sg22
I00
sbsS'IDRYNA9K'
p3763
g1
(g10
g3
NtRp3764
(dp3765
g13
S'IDMOVEGZ'
p3766
sg15
I1
sg16
(lp3767
sg18
I1
sg19
(lp3768
g1856
ag3333
ag1746
ag1703
asg21
g3763
sg22
I00
sbsS'IDLW3CW6'
p3769
g1
(g10
g3
NtRp3770
(dp3771
g13
S'ID0W4M03'
p3772
sg15
I1
sg16
(lp3773
sg18
I1
sg19
(lp3774
g1720
ag305
ag1703
ag106
ag1682
ag1782
ag1746
ag1816
ag1773
asg21
g3769
sg22
I00
sbsg1431
g1426
sS'ID14CHLJ'
p3775
g1
(g10
g3
NtRp3776
(dp3777
g13
S'ID5OUXG0'
p3778
sg15
I1
sg16
(lp3779
sg18
I1
sg19
(lp3780
g3037
asg21
g3775
sg22
I00
sbsS'ID3LX6CX'
p3781
g1
(g10
g3
NtRp3782
(dp3783
g13
S'IDZFKE80'
p3784
sg15
I1
sg16
(lp3785
sg18
I1
sg19
(lp3786
g151
ag305
ag318
ag194
ag211
ag244
ag275
ag106
ag296
asg21
g3781
sg22
I00
sbsS'IDWQK28H'
p3787
g1
(g10
g3
NtRp3788
(dp3789
g13
S'IDMBO7HL'
p3790
sg15
I1
sg16
(lp3791
sg18
I1
sg19
(lp3792
g1837
ag1703
ag1746
ag1682
ag1763
asg21
g3787
sg22
I00
sbsS'IDQVXTBS'
p3793
g1
(g10
g3
NtRp3794
(dp3795
g13
S'IDX3II3Y'
p3796
sg15
I1
sg16
(lp3797
sg18
I1
sg19
(lp3798
g3198
ag3155
ag3267
ag2864
ag3198
ag2744
ag3155
asg21
g3793
sg22
I00
sbsS'IDE8PYGX'
p3799
g1
(g10
g3
NtRp3800
(dp3801
g13
S'IDH3TVM1'
p3802
sg15
I1
sg16
(lp3803
sg18
I1
sg19
(lp3804
g305
ag975
ag194
ag211
ag244
ag275
ag106
ag296
ag151
ag405
ag414
asg21
g3799
sg22
I00
sbsS'ID23JBR2'
p3805
g1
(g10
g3
NtRp3806
(dp3807
g13
S'IDYGGJ5R'
p3808
sg15
I1
sg16
(lp3809
sg18
I1
sg19
(lp3810
g275
ag106
ag296
ag151
ag305
ag318
ag194
ag211
ag244
asg21
g3805
sg22
I00
sbsg1407
g1402
sg1401
g1396
sS'IDTQJ9GW'
p3811
g1
(g10
g3
NtRp3812
(dp3813
g13
S'IDP8Z2HI'
p3814
sg15
I0
sg16
(lp3815
sg18
I0
sg19
(lp3816
g1682
ag1746
ag3514
asg21
g3811
sg22
I00
sbsS'IDG4DMES'
p3817
g1
(g10
g3
NtRp3818
(dp3819
g13
S'IDK6BV62'
p3820
sg15
I0
sg16
(lp3821
sg18
I0
sg19
(lp3822
g452
ag265
asg21
g3817
sg22
I00
sbsS'IDFMLKPS'
p3823
g1
(g10
g3
NtRp3824
(dp3825
g13
S'ID6N2M06'
p3826
sg15
I1
sg16
(lp3827
sg18
I1
sg19
(lp3828
g1816
ag1733
ag1720
ag1703
ag1682
ag1673
ag1746
asg21
g3823
sg22
I00
sbsS'IDO2RPDP'
p3829
g1
(g10
g3
NtRp3830
(dp3831
g13
S'ID7JXCNZ'
p3832
sg15
I1
sg16
(lp3833
sg18
I1
sg19
(lp3834
g1782
ag1682
ag106
ag1773
ag305
ag1746
ag1816
ag1720
ag1703
asg21
g3829
sg22
I00
sbsS'IDCWV2NU'
p3835
g1
(g10
g3
NtRp3836
(dp3837
g13
S'IDAH8U3H'
p3838
sg15
I1
sg16
(lp3839
sg18
I1
sg19
(lp3840
g2652
ag1746
ag1733
ag1682
ag1816
ag1682
ag1746
ag1816
ag1733
asg21
g3835
sg22
I00
sbsg549
g544
sS'IDKD3XAD'
p3841
g1
(g10
g3
NtRp3842
(dp3843
g13
S'IDMHYFKE'
p3844
sg15
I1
sg16
(lp3845
sg18
I1
sg19
(lp3846
g1682
ag1816
ag3118
ag1746
asg21
g3841
sg22
I00
sbsS'ID5XYNXO'
p3847
g1
(g10
g3
NtRp3848
(dp3849
g13
S'IDGWB72P'
p3850
sg15
I1
sg16
(lp3851
sg18
I1
sg19
(lp3852
g296
ag151
ag305
ag318
ag194
ag211
ag244
ag275
ag106
asg21
g3847
sg22
I00
sbsS'ID8OGTIP'
p3853
g1
(g10
g3
NtRp3854
(dp3855
g13
S'IDY9YBMB'
p3856
sg15
I1
sg16
(lp3857
sg18
I1
sg19
(lp3858
g194
ag305
ag151
ag275
ag244
ag318
ag211
ag296
ag106
ag408
asg21
g3853
sg22
I00
sbsS'IDHIDNCQ'
p3859
g1
(g10
g3
NtRp3860
(dp3861
g13
S'IDDY69R0'
p3862
sg15
I1
sg16
(lp3863
sg18
I1
sg19
(lp3864
g1746
ag305
ag1816
ag1703
ag1782
ag1720
ag1682
ag1773
asg21
g3859
sg22
I00
sbsg1413
g1408
sg29
g30
sS'IDPKKC68'
p3865
g1
(g10
g3
NtRp3866
(dp3867
g13
S'IDUXZGW9'
p3868
sg15
I0
sg16
(lp3869
sg18
I0
sg19
(lp3870
g423
ag265
ag408
ag411
asg21
g3865
sg22
I00
sbsS'IDXX0ESW'
p3871
g1
(g10
g3
NtRp3872
(dp3873
g13
S'IDR15GB3'
p3874
sg15
I1
sg16
(lp3875
sg18
I1
sg19
(lp3876
g1682
ag1816
ag3118
ag1746
asg21
g3871
sg22
I00
sbsS'IDFLBQ75'
p3877
g1
(g10
g3
NtRp3878
(dp3879
g13
S'IDNB5QP5'
p3880
sg15
I1
sg16
(lp3881
sg18
I1
sg19
(lp3882
g1746
ag305
ag1816
ag1703
ag1782
ag1720
ag1682
ag1773
asg21
g3877
sg22
I00
sbsS'IDIYMD8Y'
p3883
g1
(g10
g3
NtRp3884
(dp3885
g13
S'ID6VPMV3'
p3886
sg15
I1
sg16
(lp3887
sg18
I1
sg19
(lp3888
g106
ag151
ag172
ag181
ag194
ag211
ag244
ag408
asg21
g3883
sg22
I00
sbsS'IDTI2WHO'
p3889
g1
(g10
g3
NtRp3890
(dp3891
g13
S'IDOWTI0V'
p3892
sg15
I1
sg16
(lp3893
sg18
I1
sg19
(lp3894
g3198
ag3155
ag3585
ag2864
ag3198
ag2744
ag3155
asg21
g3889
sg22
I00
sbsS'IDEEEONZ'
p3895
g1
(g10
g3
NtRp3896
(dp3897
g13
S'ID50RKHW'
p3898
sg15
I1
sg16
(lp3899
sg18
I1
sg19
(lp3900
g106
ag151
ag349
ag194
ag211
ag362
ag265
asg21
g3895
sg22
I00
sbsS'IDQRW1JX'
p3901
g1
(g10
g3
NtRp3902
(dp3903
g13
S'IDCJN35A'
p3904
sg15
I0
sg16
(lp3905
sg18
I0
sg19
(lp3906
g1733
ag1816
ag1682
ag1682
ag1746
ag1816
ag1733
ag2652
asg21
g3901
sg22
I00
sbsS'IDCEK30B'
p3907
g1
(g10
g3
NtRp3908
(dp3909
g13
S'IDQMR3OA'
p3910
sg15
I1
sg16
(lp3911
sg18
I1
sg19
(lp3912
g1746
ag1682
ag1816
ag3118
ag1682
ag3118
ag1746
ag1816
asg21
g3907
sg22
I00
sbsS'IDESRKQX'
p3913
g1
(g10
g3
NtRp3914
(dp3915
g13
S'ID5PUCAG'
p3916
sg15
I1
sg16
(lp3917
sg18
I1
sg19
(lp3918
g1746
ag1816
ag1733
ag1720
ag1703
ag1682
ag1673
ag1763
asg21
g3913
sg22
I00
sbsS'ID5GVLVM'
p3919
g1
(g10
g3
NtRp3920
(dp3921
g13
S'ID3R0KK0'
p3922
sg15
I1
sg16
(lp3923
sg18
I1
sg19
(lp3924
g1746
ag305
ag1816
ag1703
ag1782
ag1720
ag1682
ag1773
asg21
g3919
sg22
I00
sbsS'ID0PU4RI'
p3925
g1
(g10
g3
NtRp3926
(dp3927
g13
S'IDP9EDFV'
p3928
sg15
I1
sg16
(lp3929
sg18
I1
sg19
(lp3930
g1816
ag1782
ag1682
ag1773
ag305
ag1746
ag1720
ag1703
asg21
g3925
sg22
I00
sbsS'IDT7SBXE'
p3931
g1
(g10
g3
NtRp3932
(dp3933
g13
S'ID9K44ID'
p3934
sg15
I1
sg16
(lp3935
sg18
I1
sg19
(lp3936
g1746
ag1837
ag1682
ag1682
ag1746
ag1837
asg21
g3931
sg22
I00
sbsS'IDY6KOM9'
p3937
g1
(g10
g3
NtRp3938
(dp3939
g13
S'ID2EFH8E'
p3940
sg15
I0
sg16
(lp3941
sg18
I0
sg19
(lp3942
g1682
ag3118
ag1816
ag1682
ag3118
ag1746
ag1816
asg21
g3937
sg22
I00
sbsg494
g480
sS'ID31Q9AQ'
p3943
g1
(g10
g3
NtRp3944
(dp3945
g13
S'IDCXOYYW'
p3946
sg15
I1
sg16
(lp3947
sg18
I1
sg19
(lp3948
g305
ag318
ag194
ag211
ag244
ag275
ag106
ag296
ag151
ag265
asg21
g3943
sg22
I00
sbsS'IDCLOMB6'
p3949
g1
(g10
g3
NtRp3950
(dp3951
g13
S'IDTF1GVN'
p3952
sg15
I0
sg16
(lp3953
sg18
I0
sg19
(lp3954
g423
ag265
ag405
ag408
ag411
ag414
asg21
g3949
sg22
I00
sbsS'ID2B730Q'
p3955
g1
(g10
g3
NtRp3956
(dp3957
g13
S'ID7N0E33'
p3958
sg15
I1
sg16
(lp3959
sg18
I1
sg19
(lp3960
g1746
ag305
ag1816
ag1703
ag1782
ag1720
ag1682
ag1773
asg21
g3955
sg22
I00
sbsS'IDZ7M5GT'
p3961
g1
(g10
g3
NtRp3962
(dp3963
g13
S'IDD5O3ZG'
p3964
sg15
I1
sg16
(lp3965
sg18
I1
sg19
(lp3966
g3198
ag3155
ag2783
ag2864
ag3198
ag2744
ag3155
asg21
g3961
sg22
I00
sbsS'IDCEE4MP'
p3967
g1
(g10
g3
NtRp3968
(dp3969
g13
S'IDPBUMO0'
p3970
sg15
I1
sg16
(lp3971
sg18
I1
sg19
(lp3972
g1816
ag1733
ag1720
ag1703
ag1682
ag1673
ag1746
asg21
g3967
sg22
I00
sbsS'IDS2HMIP'
p3973
g1
(g10
g3
NtRp3974
(dp3975
g13
S'IDXKB8XI'
p3976
sg15
I1
sg16
(lp3977
sg18
I1
sg19
(lp3978
g2652
ag1746
ag1733
ag1682
ag1816
ag1682
ag1746
ag1816
ag1733
asg21
g3973
sg22
I00
sbsS'IDST1RR4'
p3979
g1
(g10
g3
NtRp3980
(dp3981
g13
S'IDB6MMNC'
p3982
sg15
I1
sg16
(lp3983
sg18
I1
sg19
(lp3984
g1816
ag1733
ag1720
ag1703
ag1682
ag1673
ag1746
asg21
g3979
sg22
I00
sbsS'IDR6463E'
p3985
g1
(g10
g3
NtRp3986
(dp3987
g13
S'IDUOWI2A'
p3988
sg15
I1
sg16
(lp3989
sg18
I1
sg19
(lp3990
g1682
ag1816
ag3118
ag1746
asg21
g3985
sg22
I00
sbsg1379
g1374
sS'IDZ3X86O'
p3991
g1
(g10
g3
NtRp3992
(dp3993
g13
S'IDJOG4ZX'
p3994
sg15
I1
sg16
(lp3995
sg18
I1
sg19
(lp3996
g296
ag151
ag305
ag318
ag194
ag211
ag244
ag275
ag106
asg21
g3991
sg22
I00
sbsS'ID6DFV2E'
p3997
g1
(g10
g3
NtRp3998
(dp3999
g13
S'ID6N8PTM'
p4000
sg15
I1
sg16
(lp4001
sg18
I1
sg19
(lp4002
g106
ag1682
ag1797
ag1746
ag1703
ag408
asg21
g3997
sg22
I00
sbsS'IDPPMWHM'
p4003
g1
(g10
g3
NtRp4004
(dp4005
g13
S'ID2TLUPE'
p4006
sg15
I0
sg16
(lp4007
sg18
I0
sg19
(lp4008
g1746
ag1682
ag1816
ag3118
asg21
g4003
sg22
I00
sbsS'IDUYWAK6'
p4009
g1
(g10
g3
NtRp4010
(dp4011
g13
S'IDYQ1RD8'
p4012
sg15
I1
sg16
(lp4013
sg18
I1
sg19
(lp4014
g194
ag211
ag244
ag275
ag106
ag296
ag151
ag305
ag318
ag408
asg21
g4009
sg22
I00
sbsS'IDNIRZKT'
p4015
g1
(g10
g3
NtRp4016
(dp4017
g13
S'IDBYNAQV'
p4018
sg15
I1
sg16
(lp4019
sg18
I1
sg19
(lp4020
g3198
ag2744
ag2864
ag3155
ag3585
ag2864
ag3198
ag2744
ag3155
asg21
g4015
sg22
I00
sbsS'IDT7VODW'
p4021
g1
(g10
g3
NtRp4022
(dp4023
g13
S'ID8W8297'
p4024
sg15
I1
sg16
(lp4025
sg18
I1
sg19
(lp4026
g2744
ag3155
ag3558
ag2864
ag3198
asg21
g4021
sg22
I00
sbsg566
g561
sS'IDZQHVLX'
p4027
g1
(g10
g3
NtRp4028
(dp4029
g13
S'ID68701Z'
p4030
sg15
I1
sg16
(lp4031
sg18
I1
sg19
(lp4032
g1746
ag305
ag1816
ag1703
ag1782
ag1720
ag1682
ag1773
asg21
g4027
sg22
I00
sbsg1519
g1514
sS'IDIUBNOH'
p4033
g1
(g10
g3
NtRp4034
(dp4035
g13
S'IDYN5PQV'
p4036
sg15
I1
sg16
(lp4037
sg18
I1
sg19
(lp4038
g1837
ag1746
ag1682
ag1682
ag1746
ag1837
asg21
g4033
sg22
I00
sbsg1043
g1038
sS'IDJXQNYG'
p4039
g1
(g10
g3
NtRp4040
(dp4041
g13
S'IDTNZ1I2'
p4042
sg15
I1
sg16
(lp4043
sg18
I1
sg19
(lp4044
g3198
ag3155
ag3267
ag2864
ag3198
ag2744
ag3155
asg21
g4039
sg22
I00
sbsS'IDZQK0RJ'
p4045
g1
(g10
g3
NtRp4046
(dp4047
g13
S'IDQR8THT'
p4048
sg15
I1
sg16
(lp4049
sg18
I1
sg19
(lp4050
g3198
ag3155
ag2735
ag2864
ag3198
ag2744
ag3155
asg21
g4045
sg22
I00
sbsS'IDZB31ZZ'
p4051
g1
(g10
g3
NtRp4052
(dp4053
g13
S'ID5L1H4M'
p4054
sg15
I0
sg16
(lp4055
sg18
I0
sg19
(lp4056
g1816
ag3118
ag1746
ag1682
ag1682
ag3118
ag1746
ag1816
asg21
g4051
sg22
I00
sbsS'IDYHGVSU'
p4057
g1
(g10
g3
NtRp4058
(dp4059
g13
S'IDHWF9TR'
p4060
sg15
I1
sg16
(lp4061
sg18
I1
sg19
(lp4062
g211
ag244
ag275
ag106
ag296
ag151
ag305
ag318
ag194
asg21
g4057
sg22
I00
sbsS'IDPHC123'
p4063
g1
(g10
g3
NtRp4064
(dp4065
g13
S'IDCS7488'
p4066
sg15
I1
sg16
(lp4067
sg18
I1
sg19
(lp4068
g3198
ag3155
ag3567
ag2864
ag3198
ag2744
ag3155
asg21
g4063
sg22
I00
sbsS'IDH0BVRR'
p4069
g1
(g10
g3
NtRp4070
(dp4071
g13
S'IDBRSVJ2'
p4072
sg15
I1
sg16
(lp4073
sg18
I1
sg19
(lp4074
g1816
ag1733
ag1720
ag1703
ag1682
ag1673
ag1746
asg21
g4069
sg22
I00
sbsS'IDJVES4S'
p4075
g1
(g10
g3
NtRp4076
(dp4077
g13
S'IDJEWI4E'
p4078
sg15
I1
sg16
(lp4079
sg18
I1
sg19
(lp4080
g3198
ag3155
ag3558
ag2864
ag3198
ag2744
ag3155
asg21
g4075
sg22
I00
sbsS'IDQE7FZM'
p4081
g1
(g10
g3
NtRp4082
(dp4083
g13
g3655
sg15
I1
sg16
(lp4084
sg18
I1
sg19
(lp4085
g2810
ag2639
asg21
g4081
sg22
I00
sbsS'ID428969'
p4086
g1
(g10
g3
NtRp4087
(dp4088
g13
S'IDHI2JUW'
p4089
sg15
I1
sg16
(lp4090
sg18
I1
sg19
(lp4091
g211
ag244
ag275
ag106
ag296
ag151
ag305
ag318
ag194
asg21
g4086
sg22
I00
sbsS'ID2ITLBD'
p4092
g1
(g10
g3
NtRp4093
(dp4094
g13
S'IDRSCLQG'
p4095
sg15
I1
sg16
(lp4096
sg18
I1
sg19
(lp4097
g275
ag106
ag296
ag151
ag305
ag318
ag194
ag211
ag244
ag405
ag414
asg21
g4092
sg22
I00
sbsS'ID4EMDEO'
p4098
g1
(g10
g3
NtRp4099
(dp4100
g13
S'IDIH9FOD'
p4101
sg15
I1
sg16
(lp4102
sg18
I1
sg19
(lp4103
g211
ag244
ag106
ag151
ag172
ag181
ag194
ag265
asg21
g4098
sg22
I00
sbsg479
g462
sS'IDOMK1HO'
p4104
g1
(g10
g3
NtRp4105
(dp4106
g13
S'IDFLC82E'
p4107
sg15
I1
sg16
(lp4108
sg18
I1
sg19
(lp4109
g2770
ag211
ag244
ag1782
ag1682
ag106
ag1773
ag305
ag1746
asg21
g4104
sg22
I00
sbsS'IDSTL9G7'
p4110
g1
(g10
g3
NtRp4111
(dp4112
g13
S'IDA8QJR5'
p4113
sg15
I1
sg16
(lp4114
sg18
I1
sg19
(lp4115
g211
ag1816
ag106
ag1682
ag1673
ag1733
ag1746
asg21
g4110
sg22
I00
sbsS'IDWRSOPB'
p4116
g1
(g10
g3
NtRp4117
(dp4118
g13
S'IDOP4VGJ'
p4119
sg15
I1
sg16
(lp4120
sg18
I1
sg19
(lp4121
g181
ag194
ag211
ag244
ag106
ag151
ag172
ag265
asg21
g4116
sg22
I00
sbsS'ID0OVHKM'
p4122
g1
(g10
g3
NtRp4123
(dp4124
g13
S'IDXNE7UO'
p4125
sg15
I0
sg16
(lp4126
sg18
I0
sg19
(lp4127
g452
ag265
ag408
asg21
g4122
sg22
I00
sbsS'ID4BPH1E'
p4128
g1
(g10
g3
NtRp4129
(dp4130
g13
S'IDKJV45Q'
p4131
sg15
I1
sg16
(lp4132
sg18
I1
sg19
(lp4133
g1816
ag106
ag1682
ag1673
ag1733
ag1746
ag211
asg21
g4128
sg22
I00
sbsg951
g946
sS'IDG5W32R'
p4134
g1
(g10
g3
NtRp4135
(dp4136
g13
S'IDBDMA4A'
p4137
sg15
I1
sg16
(lp4138
sg18
I1
sg19
(lp4139
g2864
ag3198
ag2744
ag3155
ag3576
asg21
g4134
sg22
I00
sbsS'ID9RMUSJ'
p4140
g1
(g10
g3
NtRp4141
(dp4142
g13
S'ID634OK4'
p4143
sg15
I1
sg16
(lp4144
sg18
I1
sg19
(lp4145
g211
ag244
ag106
ag151
ag172
ag181
ag194
ag408
asg21
g4140
sg22
I00
sbsS'IDW5CJ8S'
p4146
g1
(g10
g3
NtRp4147
(dp4148
g13
S'ID0VVPHR'
p4149
sg15
I1
sg16
(lp4150
sg18
I1
sg19
(lp4151
g3231
ag3198
ag3155
ag2864
ag3198
ag2744
ag3155
asg21
g4146
sg22
I00
sbsS'IDMEAUBW'
p4152
g1
(g10
g3
NtRp4153
(dp4154
g13
S'IDMJ6HS4'
p4155
sg15
I1
sg16
(lp4156
sg18
I1
sg19
(lp4157
g296
ag151
ag305
ag318
ag194
ag211
ag244
ag275
ag106
ag265
asg21
g4152
sg22
I00
sbsS'IDWP8PP9'
p4158
g1
(g10
g3
NtRp4159
(dp4160
g13
S'IDJK2U4T'
p4161
sg15
I1
sg16
(lp4162
sg18
I1
sg19
(lp4163
g3198
ag3155
ag2783
ag2864
ag3198
ag2744
ag3155
asg21
g4158
sg22
I00
sbsS'IDRRLKJP'
p4164
g1
(g10
g3
NtRp4165
(dp4166
g13
S'IDY1QRUZ'
p4167
sg15
I1
sg16
(lp4168
sg18
I1
sg19
(lp4169
g211
ag106
ag151
ag333
ag194
ag411
asg21
g4164
sg22
I00
sbsS'IDUTRJXL'
p4170
g1
(g10
g3
NtRp4171
(dp4172
g13
S'ID00QKSO'
p4173
sg15
I1
sg16
(lp4174
sg18
I1
sg19
(lp4175
g423
ag476
asg21
g4170
sg22
I00
sbsg1425
g1420
sS'ID2XTWWQ'
p4176
g1
(g10
g3
NtRp4177
(dp4178
g13
S'IDCB8R1V'
p4179
sg15
I0
sg16
(lp4180
sg18
I0
sg19
(lp4181
g1837
ag1746
ag211
ag3442
ag106
ag1682
asg21
g4176
sg22
I00
sbsg41
g42
sS'ID9X7JEM'
p4182
g1
(g10
g3
NtRp4183
(dp4184
g13
S'IDS5TOTK'
p4185
sg15
I1
sg16
(lp4186
sg18
I1
sg19
(lp4187
g3198
ag3155
ag2783
ag2864
ag3198
ag2744
ag3155
asg21
g4182
sg22
I00
sbsS'ID3NB06K'
p4188
g1
(g10
g3
NtRp4189
(dp4190
g13
S'IDZ0KF6D'
p4191
sg15
I1
sg16
(lp4192
sg18
I1
sg19
(lp4193
g349
ag194
ag211
ag362
ag106
ag151
asg21
g4188
sg22
I00
sbsS'ID9KGLED'
p4194
g1
(g10
g3
NtRp4195
(dp4196
g13
S'IDDSZLX9'
p4197
sg15
I1
sg16
(lp4198
sg18
I1
sg19
(lp4199
g3118
ag1682
ag1816
ag1682
ag3118
ag1746
ag1816
asg21
g4194
sg22
I00
sbsS'ID2QHX5J'
p4200
g1
(g10
g3
NtRp4201
(dp4202
g13
S'IDU72YV4'
p4203
sg15
I1
sg16
(lp4204
sg18
I1
sg19
(lp4205
g3198
ag3155
ag2783
ag2864
ag3198
ag2744
ag3155
asg21
g4200
sg22
I00
sbsS'ID95JW87'
p4206
g1
(g10
g3
NtRp4207
(dp4208
g13
S'ID4PQKEE'
p4209
sg15
I1
sg16
(lp4210
sg18
I1
sg19
(lp4211
g3198
ag3155
ag3585
ag2864
ag3198
ag2744
ag3155
asg21
g4206
sg22
I00
sbsS'ID98G3SC'
p4212
g1
(g10
g3
NtRp4213
(dp4214
g13
S'IDIJ4JVT'
p4215
sg15
I1
sg16
(lp4216
sg18
I1
sg19
(lp4217
g211
ag1816
ag1720
ag106
ag1682
ag1673
ag1733
ag1746
ag1763
asg21
g4212
sg22
I00
sbsS'IDT7C1DM'
p4218
g1
(g10
g3
NtRp4219
(dp4220
g13
S'IDREUWTF'
p4221
sg15
I1
sg16
(lp4222
sg18
I1
sg19
(lp4223
g3198
ag3155
ag3576
ag2864
ag3198
ag2744
ag3155
asg21
g4218
sg22
I00
sbsS'IDZFR9V4'
p4224
g1
(g10
g3
NtRp4225
(dp4226
g13
S'IDKAZJOJ'
p4227
sg15
I1
sg16
(lp4228
sg18
I1
sg19
(lp4229
g1746
ag305
ag1816
ag1703
ag1782
ag1720
ag1682
ag1773
asg21
g4224
sg22
I00
sbsS'IDHQKXKL'
p4230
g1
(g10
g3
NtRp4231
(dp4232
g13
S'IDOTO6QI'
p4233
sg15
I1
sg16
(lp4234
sg18
I1
sg19
(lp4235
g1682
ag3118
ag1816
ag1682
ag3118
ag1746
ag1816
asg21
g4230
sg22
I00
sbsS'IDABP2JU'
p4236
g1
(g10
g3
NtRp4237
(dp4238
g13
S'IDY2AZ21'
p4239
sg15
I1
sg16
(lp4240
sg18
I1
sg19
(lp4241
g1682
ag1746
ag1797
ag1682
ag1746
asg21
g4236
sg22
I00
sbsS'IDEO7WDZ'
p4242
g1
(g10
g3
NtRp4243
(dp4244
g13
S'IDMHICR3'
p4245
sg15
I1
sg16
(lp4246
sg18
I1
sg19
(lp4247
g3155
ag3267
ag2864
ag3198
ag2744
asg21
g4242
sg22
I00
sbsS'ID9KUR75'
p4248
g1
(g10
g3
NtRp4249
(dp4250
g13
S'IDTWM633'
p4251
sg15
I1
sg16
(lp4252
sg18
I1
sg19
(lp4253
g151
ag318
ag244
ag211
ag106
ag305
ag275
ag296
ag194
ag476
asg21
g4248
sg22
I00
sbsS'IDDP8S14'
p4254
g1
(g10
g3
NtRp4255
(dp4256
g13
S'ID1WZRW2'
p4257
sg15
I0
sg16
(lp4258
sg18
I0
sg19
(lp4259
g452
ag405
asg21
g4254
sg22
I00
sbsS'IDPBD9MM'
p4260
g1
(g10
g3
NtRp4261
(dp4262
g13
S'IDXH7CRE'
p4263
sg15
I1
sg16
(lp4264
sg18
I1
sg19
(lp4265
g211
ag244
ag106
ag151
ag172
ag181
ag194
ag408
asg21
g4260
sg22
I00
sbsS'ID1UC0JX'
p4266
g1
(g10
g3
NtRp4267
(dp4268
g13
S'ID9EACVU'
p4269
sg15
I1
sg16
(lp4270
sg18
I1
sg19
(lp4271
g211
ag362
ag106
ag151
ag349
ag194
asg21
g4266
sg22
I00
sbsS'ID7PTJNE'
p4272
g1
(g10
g3
NtRp4273
(dp4274
g13
S'ID0383CZ'
p4275
sg15
I1
sg16
(lp4276
sg18
I1
sg19
(lp4277
g1837
ag1746
ag211
ag3442
ag106
ag1682
asg21
g4272
sg22
I00
sbsS'ID7QSPKO'
p4278
g1
(g10
g3
NtRp4279
(dp4280
g13
S'IDV8WEWL'
p4281
sg15
I1
sg16
(lp4282
sg18
I1
sg19
(lp4283
g3594
ag1682
ag2694
ag1746
ag1
(g105
g3
NtRp4284
(dp4285
g108
(lp4286
sg148
g268
sg21
g77
sg13
S''
sbasg21
g4278
sg22
I00
sbsS'IDX5WK8B'
p4287
g1
(g10
g3
NtRp4288
(dp4289
g13
S'IDGWOTMI'
p4290
sg15
I1
sg16
(lp4291
sg18
I1
sg19
(lp4292
g3198
ag3155
ag3576
ag2864
ag3198
ag2744
ag3155
asg21
g4287
sg22
I00
sbsS'ID6W3XMO'
p4293
g1
(g10
g3
NtRp4294
(dp4295
g13
S'IDUS3QOV'
p4296
sg15
I1
sg16
(lp4297
sg18
I1
sg19
(lp4298
g2744
ag2864
ag3198
ag3155
ag3315
ag2864
ag3198
ag2744
ag3155
asg21
g4293
sg22
I00
sbsS'IDU2YT5O'
p4299
g1
(g10
g3
NtRp4300
(dp4301
g13
S'IDGH6U4R'
p4302
sg15
I1
sg16
(lp4303
sg18
I1
sg19
(lp4304
g172
ag181
ag194
ag211
ag244
ag106
ag151
ag408
asg21
g4299
sg22
I00
sbsS'IDCNBUZE'
p4305
g1
(g10
g3
NtRp4306
(dp4307
g13
S'IDCV4NFZ'
p4308
sg15
I1
sg16
(lp4309
sg18
I1
sg19
(lp4310
g1058
asg21
g4305
sg22
I00
sbsS'ID48LDH9'
p4311
g1
(g10
g3
NtRp4312
(dp4313
g13
S'IDO0PWKS'
p4314
sg15
I1
sg16
(lp4315
sg18
I1
sg19
(lp4316
g1682
ag3118
ag1816
ag1682
ag3118
ag1746
ag1816
asg21
g4311
sg22
I00
sbsg53
g54
sS'IDZID7JM'
p4317
g1
(g10
g3
NtRp4318
(dp4319
g13
S'ID8JR6LI'
p4320
sg15
I1
sg16
(lp4321
sg18
I1
sg19
(lp4322
g194
ag211
ag244
ag106
ag151
ag172
ag181
ag265
asg21
g4317
sg22
I00
sbsS'ID0F0GZV'
p4323
g1
(g10
g3
NtRp4324
(dp4325
g13
S'IDOHGC8O'
p4326
sg15
I1
sg16
(lp4327
sg18
I1
sg19
(lp4328
g3118
ag1746
ag1682
ag1816
asg21
g4323
sg22
I00
sbsS'ID5XADU8'
p4329
g1
(g10
g3
NtRp4330
(dp4331
g13
S'ID7CHORO'
p4332
sg15
I1
sg16
(lp4333
sg18
I1
sg19
(lp4334
g1720
ag211
ag1816
ag1782
ag1682
ag106
ag1773
ag305
ag1746
asg21
g4329
sg22
I00
sbsS'ID2N615Y'
p4335
g1
(g10
g3
NtRp4336
(dp4337
g13
S'ID5SY70X'
p4338
sg15
I1
sg16
(lp4339
sg18
I1
sg19
(lp4340
g3576
ag3198
ag3155
ag2864
ag3198
ag2744
ag3155
asg21
g4335
sg22
I00
sbsS'ID1S16YU'
p4341
g1
(g10
g3
NtRp4342
(dp4343
g13
S'IDIRKM4X'
p4344
sg15
I1
sg16
(lp4345
sg18
I1
sg19
(lp4346
g106
ag151
ag349
ag194
ag211
ag362
ag408
asg21
g4341
sg22
I00
sbsS'IDZO2B2W'
p4347
g1
(g10
g3
NtRp4348
(dp4349
g13
S'IDBDHMSY'
p4350
sg15
I1
sg16
(lp4351
sg18
I1
sg19
(lp4352
g1703
ag1682
ag1782
ag1773
ag1746
ag1720
asg21
g4347
sg22
I00
sbsS'IDKPFH7D'
p4353
g1
(g10
g3
NtRp4354
(dp4355
g13
S'IDSBY478'
p4356
sg15
I1
sg16
(lp4357
sg18
I1
sg19
(lp4358
g1816
ag1682
ag1673
ag1733
ag1746
ag1703
asg21
g4353
sg22
I00
sbsS'IDY5DU5K'
p4359
g1
(g10
g3
NtRp4360
(dp4361
g13
S'IDPFLQP4'
p4362
sg15
I1
sg16
(lp4363
sg18
I1
sg19
(lp4364
g296
ag151
ag305
ag318
ag194
ag211
ag244
ag275
ag106
ag194
ag244
ag106
ag151
ag2877
ag296
asg21
g4359
sg22
I00
sbsS'IDOXKZXD'
p4365
g1
(g10
g3
NtRp4366
(dp4367
g13
S'IDYKXQ13'
p4368
sg15
I1
sg16
(lp4369
sg18
I1
sg19
(lp4370
g1720
ag1673
ag1733
ag1746
ag1816
ag1682
asg21
g4365
sg22
I00
sbsS'IDACIZ96'
p4371
g1
(g10
g3
NtRp4372
(dp4373
g13
S'IDC3QZVI'
p4374
sg15
I1
sg16
(lp4375
sg18
I1
sg19
(lp4376
g296
ag151
ag305
ag318
ag194
ag211
ag244
ag275
ag106
ag405
ag414
asg21
g4371
sg22
I00
sbsS'IDA7XZOM'
p4377
g1
(g10
g3
NtRp4378
(dp4379
g13
S'IDBPU02U'
p4380
sg15
I1
sg16
(lp4381
sg18
I1
sg19
(lp4382
g172
ag181
ag194
ag211
ag244
ag106
ag151
ag265
asg21
g4377
sg22
I00
sbsS'IDGMNJ03'
p4383
g1
(g10
g3
NtRp4384
(dp4385
g13
S'IDKD1KAQ'
p4386
sg15
I1
sg16
(lp4387
sg18
I1
sg19
(lp4388
g194
ag211
ag244
ag275
ag106
ag296
ag151
ag305
ag318
asg21
g4383
sg22
I00
sbsS'IDW5WVCK'
p4389
g1
(g10
g3
NtRp4390
(dp4391
g13
g3526
sg15
I1
sg16
(lp4392
sg18
I1
sg19
(lp4393
g2810
ag2639
asg21
g4389
sg22
I00
sbsg1367
g1362
sS'ID3JZD0H'
p4394
g1
(g10
g3
NtRp4395
(dp4396
g13
S'IDL7KPHO'
p4397
sg15
I1
sg16
(lp4398
sg18
I1
sg19
(lp4399
g3198
ag3155
ag3240
ag2864
ag3198
ag2744
ag3155
asg21
g4394
sg22
I00
sbsS'IDZK1BCX'
p4400
g1
(g10
g3
NtRp4401
(dp4402
g13
S'ID4VL41Z'
p4403
sg15
I1
sg16
(lp4404
sg18
I1
sg19
(lp4405
g1746
ag1682
ag1816
ag3118
ag1682
ag3118
ag1746
ag1816
asg21
g4400
sg22
I00
sbsS'IDV7QT6T'
p4406
g1
(g10
g3
NtRp4407
(dp4408
g13
S'IDRI7FIO'
p4409
sg15
I1
sg16
(lp4410
sg18
I1
sg19
(lp4411
g3198
ag3155
ag3585
ag2864
ag3198
ag2744
ag3155
asg21
g4406
sg22
I00
sbsS'IDCDEKDC'
p4412
g1
(g10
g3
NtRp4413
(dp4414
g13
S'IDMRY5QI'
p4415
sg15
I1
sg16
(lp4416
sg18
I1
sg19
(lp4417
g3118
ag1746
ag1682
ag1816
ag1682
ag3118
ag1746
ag1816
asg21
g4412
sg22
I00
sbsg432
g418
sS'ID9UUTBM'
p4418
g1
(g10
g3
NtRp4419
(dp4420
g13
S'IDQTURIK'
p4421
sg15
I0
sg16
(lp4422
sg18
I0
sg19
(lp4423
g3037
ag3037
asg21
g4418
sg22
I00
sbsS'ID701IC6'
p4424
g1
(g10
g3
NtRp4425
(dp4426
g13
S'IDH6NCO7'
p4427
sg15
I1
sg16
(lp4428
sg18
I1
sg19
(lp4429
g1746
ag1682
ag1816
ag3118
asg21
g4424
sg22
I00
sbsS'IDFA53JP'
p4430
g1
(g10
g3
NtRp4431
(dp4432
g13
S'IDS0GT6N'
p4433
sg15
I0
sg16
(lp4434
sg18
I0
sg19
(lp4435
g3118
ag1746
ag1682
ag1816
asg21
g4430
sg22
I00
sbsS'IDZVV98W'
p4436
g1
(g10
g3
NtRp4437
(dp4438
g13
S'IDATALA6'
p4439
sg15
I1
sg16
(lp4440
sg18
I1
sg19
(lp4441
g3198
ag3155
ag3315
ag2864
ag3198
ag2744
ag3155
asg21
g4436
sg22
I00
sbsg1395
g1390
sg2160
g2155
sS'IDJ52AVJ'
p4442
g1
(g10
g3
NtRp4443
(dp4444
g13
S'IDMY2TMR'
p4445
sg15
I0
sg16
(lp4446
sg18
I0
sg19
(lp4447
g1746
ag3514
ag1682
asg21
g4442
sg22
I00
sbsS'ID4CJRY4'
p4448
g1
(g10
g3
NtRp4449
(dp4450
g13
S'IDWAN8KD'
p4451
sg15
I1
sg16
(lp4452
sg18
I1
sg19
(lp4453
g305
ag318
ag194
ag211
ag244
ag275
ag106
ag296
ag151
asg21
g4448
sg22
I00
sbsS'ID7DU8AG'
p4454
g1
(g10
g3
NtRp4455
(dp4456
g13
S'ID6IADQT'
p4457
sg15
I1
sg16
(lp4458
sg18
I1
sg19
(lp4459
g3198
ag3155
ag2783
ag2864
ag3198
ag2744
ag3155
asg21
g4454
sg22
I00
sbsS'IDRU5PKY'
p4460
g1
(g10
g3
NtRp4461
(dp4462
g13
S'IDWVZPGG'
p4463
sg15
I1
sg16
(lp4464
sg18
I1
sg19
(lp4465
g1816
ag2652
ag1746
ag1733
ag1682
ag1682
ag1746
ag1816
ag1733
asg21
g4460
sg22
I00
sbsS'ID6HFBY0'
p4466
g1
(g10
g3
NtRp4467
(dp4468
g13
S'ID074WY6'
p4469
sg15
I1
sg16
(lp4470
sg18
I1
sg19
(lp4471
g1746
ag1816
ag1733
ag1720
ag1703
ag1682
ag1673
asg21
g4466
sg22
I00
sbsS'IDOF4WZZ'
p4472
g1
(g10
g3
NtRp4473
(dp4474
g13
S'IDBZ5AOJ'
p4475
sg15
I1
sg16
(lp4476
sg18
I1
sg19
(lp4477
g1869
ag1746
asg21
g4472
sg22
I00
sbsS'IDBPDV34'
p4478
g1
(g10
g3
NtRp4479
(dp4480
g13
S'IDEVC448'
p4481
sg15
I1
sg16
(lp4482
sg18
I1
sg19
(lp4483
g1816
ag1782
ag1682
ag1773
ag305
ag1746
ag1720
ag1703
ag408
asg21
g4478
sg22
I00
sbsS'IDLSB3G8'
p4484
g1
(g10
g3
NtRp4485
(dp4486
g13
S'IDHZYZCZ'
p4487
sg15
I1
sg16
(lp4488
sg18
I1
sg19
(lp4489
g106
ag151
ag333
ag194
ag211
ag265
asg21
g4484
sg22
I00
sbsg1810
g1792
sS'IDZX0UF5'
p4490
g1
(g10
g3
NtRp4491
(dp4492
g13
S'IDW4CYT8'
p4493
sg15
I1
sg16
(lp4494
sg18
I1
sg19
(lp4495
g1816
ag1733
ag1720
ag1703
ag1682
ag1673
ag1746
asg21
g4490
sg22
I00
sbsS'IDWPO6M4'
p4496
g1
(g10
g3
NtRp4497
(dp4498
g13
S'IDRACIU8'
p4499
sg15
I1
sg16
(lp4500
sg18
I1
sg19
(lp4501
g3198
ag3155
ag3576
ag2864
ag3198
ag2744
ag3155
asg21
g4496
sg22
I00
sbsS'IDUGO01U'
p4502
g1
(g10
g3
NtRp4503
(dp4504
g13
S'IDU4TXMQ'
p4505
sg15
I1
sg16
(lp4506
sg18
I1
sg19
(lp4507
g211
ag244
ag106
ag151
ag172
ag181
ag194
ag408
asg21
g4502
sg22
I00
sbsS'IDL6HJTQ'
p4508
g1
(g10
g3
NtRp4509
(dp4510
g13
S'IDRWRO59'
p4511
sg15
I0
sg16
(lp4512
sg18
I0
sg19
(lp4513
g423
asg21
g4508
sg22
I00
sbsS'IDYLYPKB'
p4514
g1
(g10
g3
NtRp4515
(dp4516
g13
S'ID36O1VT'
p4517
sg15
I0
sg16
(lp4518
sg18
I0
sg19
(lp4519
g3037
ag3037
asg21
g4514
sg22
I00
sbsg65
g66
sS'IDCA88NN'
p4520
g1
(g10
g3
NtRp4521
(dp4522
g13
S'IDE1P40Y'
p4523
sg15
I0
sg16
(lp4524
sg18
I0
sg19
(lp4525
g1746
ag1682
ag3455
asg21
g4520
sg22
I00
sbsS'ID30LFX8'
p4526
g1
(g10
g3
NtRp4527
(dp4528
g13
S'IDV6VIIZ'
p4529
sg15
I1
sg16
(lp4530
sg18
I1
sg19
(lp4531
g275
ag106
ag296
ag151
ag305
ag318
ag194
ag211
ag244
ag265
asg21
g4526
sg22
I00
sbsS'IDB0GXWJ'
p4532
g1
(g10
g3
NtRp4533
(dp4534
g13
S'IDZHXXJM'
p4535
sg15
I1
sg16
(lp4536
sg18
I1
sg19
(lp4537
g1816
ag1733
ag1720
ag1703
ag1682
ag1673
ag1746
asg21
g4532
sg22
I00
sbsS'IDYQLVR2'
p4538
g1
(g10
g3
NtRp4539
(dp4540
g13
S'IDS1NGZ1'
p4541
sg15
I0
sg16
(lp4542
sg18
I0
sg19
(lp4543
g1682
ag1673
ag1733
ag1746
ag1816
ag1703
asg21
g4538
sg22
I00
sbsS'ID7A9ZPL'
p4544
g1
(g10
g3
NtRp4545
(dp4546
g13
S'IDUHYNSA'
p4547
sg15
I1
sg16
(lp4548
sg18
I1
sg19
(lp4549
g1682
ag1816
ag3118
ag1746
ag1682
ag3118
ag1746
ag1816
asg21
g4544
sg22
I00
sbsg1253
g1248
sS'IDGEJ76K'
p4550
g1
(g10
g3
NtRp4551
(dp4552
g13
S'IDG010XQ'
p4553
sg15
I0
sg16
(lp4554
sg18
I0
sg19
(lp4555
g452
ag405
asg21
g4550
sg22
I00
sbsS'ID9FLUPA'
p4556
g1
(g10
g3
NtRp4557
(dp4558
g13
S'IDY2E9MS'
p4559
sg15
I1
sg16
(lp4560
sg18
I1
sg19
(lp4561
g3037
asg21
g4556
sg22
I00
sbsS'IDYREBEC'
p4562
g1
(g10
g3
NtRp4563
(dp4564
g13
S'IDDVCIBH'
p4565
sg15
I1
sg16
(lp4566
sg18
I1
sg19
(lp4567
g3315
ag2864
ag3198
ag2744
ag3155
asg21
g4562
sg22
I00
sbsS'ID4BSVVH'
p4568
g1
(g10
g3
NtRp4569
(dp4570
g13
S'IDE03XP5'
p4571
sg15
I1
sg16
(lp4572
sg18
I1
sg19
(lp4573
g194
ag211
ag106
ag151
ag333
asg21
g4568
sg22
I00
sbsS'ID9GPKWC'
p4574
g1
(g10
g3
NtRp4575
(dp4576
g13
S'IDVP328K'
p4577
sg15
I0
sg16
(lp4578
sg18
I0
sg19
(lp4579
g1869
ag1746
ag408
asg21
g4574
sg22
I00
sbsS'IDNOAEGO'
p4580
g1
(g10
g3
NtRp4581
(dp4582
g13
g3322
sg15
I1
sg16
(lp4583
sg18
I1
sg19
(lp4584
g3315
asg21
g4580
sg22
I00
sbsg327
g270
sS'ID6ZSFFH'
p4585
g1
(g10
g3
NtRp4586
(dp4587
g13
S'ID10SP3H'
p4588
sg15
I1
sg16
(lp4589
sg18
I1
sg19
(lp4590
g194
ag211
ag106
ag151
ag1086
ag405
asg21
g4585
sg22
I00
sbsS'IDQ1I4LF'
p4591
g1
(g10
g3
NtRp4592
(dp4593
g13
S'IDSJ1C2P'
p4594
sg15
I1
sg16
(lp4595
sg18
I1
sg19
(lp4596
g1720
ag1782
ag1682
ag1746
ag1703
ag1773
ag1763
asg21
g4591
sg22
I00
sbsS'IDCTIAI2'
p4597
g1
(g10
g3
NtRp4598
(dp4599
g13
S'IDJRGDKK'
p4600
sg15
I1
sg16
(lp4601
sg18
I1
sg19
(lp4602
g194
ag211
ag244
ag275
ag106
ag296
ag151
ag305
ag318
ag265
asg21
g4597
sg22
I00
sbsS'IDQV09YO'
p4603
g1
(g10
g3
NtRp4604
(dp4605
g13
S'ID559RIX'
p4606
sg15
I1
sg16
(lp4607
sg18
I1
sg19
(lp4608
g333
ag194
ag211
ag106
ag151
ag1703
ag476
asg21
g4603
sg22
I00
sbsS'IDGN00ZW'
p4609
g1
(g10
g3
NtRp4610
(dp4611
g13
S'IDZQ2VXZ'
p4612
sg15
I1
sg16
(lp4613
sg18
I1
sg19
(lp4614
g3198
ag3155
ag3576
ag2864
ag3198
ag2744
ag3155
asg21
g4609
sg22
I00
sbsS'IDROJZWT'
p4615
g1
(g10
g3
NtRp4616
(dp4617
g13
S'IDOYB2AV'
p4618
sg15
I1
sg16
(lp4619
sg18
I1
sg19
(lp4620
g1746
ag1682
ag1816
ag3118
ag1682
ag3118
ag1746
ag1816
asg21
g4615
sg22
I00
sbsS'IDZL9KHD'
p4621
g1
(g10
g3
NtRp4622
(dp4623
g13
S'ID33WCZU'
p4624
sg15
I1
sg16
(lp4625
sg18
I1
sg19
(lp4626
g1816
ag1733
ag1720
ag1703
ag1682
ag1673
ag1746
asg21
g4621
sg22
I00
sbsS'ID6QMAH6'
p4627
g1
(g10
g3
NtRp4628
(dp4629
g13
S'IDPA4TZH'
p4630
sg15
I1
sg16
(lp4631
sg18
I1
sg19
(lp4632
g3037
asg21
g4627
sg22
I00
sbsS'ID3ZAKLE'
p4633
g1
(g10
g3
NtRp4634
(dp4635
g13
S'IDAAFE8R'
p4636
sg15
I1
sg16
(lp4637
sg18
I1
sg19
(lp4638
g1746
ag305
ag1816
ag1703
ag1782
ag1720
ag1682
ag1773
asg21
g4633
sg22
I00
sbsS'IDY8AE5W'
p4639
g1
(g10
g3
NtRp4640
(dp4641
g13
S'IDKLU6SI'
p4642
sg15
I1
sg16
(lp4643
sg18
I1
sg19
(lp4644
g318
ag296
ag211
ag194
ag106
ag305
ag151
ag275
ag244
ag408
asg21
g4639
sg22
I00
sbsS'IDP8806J'
p4645
g1
(g10
g3
NtRp4646
(dp4647
g13
S'IDNRFLIQ'
p4648
sg15
I1
sg16
(lp4649
sg18
I1
sg19
(lp4650
g1869
ag1746
asg21
g4645
sg22
I00
sbsS'IDRPHGDY'
p4651
g1
(g10
g3
NtRp4652
(dp4653
g13
S'IDALYKM7'
p4654
sg15
I1
sg16
(lp4655
sg18
I1
sg19
(lp4656
g3198
ag3155
ag3231
ag2864
ag3198
ag2744
ag3155
asg21
g4651
sg22
I00
sbsS'IDTMJUSH'
p4657
g1
(g10
g3
NtRp4658
(dp4659
g13
S'IDCJ56DJ'
p4660
sg15
I1
sg16
(lp4661
sg18
I1
sg19
(lp4662
g106
ag151
ag1086
ag194
ag211
ag414
asg21
g4657
sg22
I00
sbsS'IDJWS181'
p4663
g1
(g10
g3
NtRp4664
(dp4665
g13
S'IDEQEXMY'
p4666
sg15
I1
sg16
(lp4667
sg18
I1
sg19
(lp4668
g172
ag181
ag194
ag211
ag244
ag106
ag151
ag408
asg21
g4663
sg22
I00
sbsS'ID4MMCSF'
p4669
g1
(g10
g3
NtRp4670
(dp4671
g13
S'IDZSO77A'
p4672
sg15
I1
sg16
(lp4673
sg18
I1
sg19
(lp4674
g211
ag244
ag106
ag151
ag172
ag181
ag194
ag408
asg21
g4669
sg22
I00
sbsS'ID2T5OPO'
p4675
g1
(g10
g3
NtRp4676
(dp4677
g13
S'IDD52ESM'
p4678
sg15
I1
sg16
(lp4679
sg18
I1
sg19
(lp4680
g211
ag244
ag106
ag151
ag172
ag181
ag194
ag265
asg21
g4675
sg22
I00
sbsS'IDRUPWM4'
p4681
g1
(g10
g3
NtRp4682
(dp4683
g13
S'ID6OKYJH'
p4684
sg15
I0
sg16
(lp4685
sg18
I0
sg19
(lp4686
g305
ag1773
ag1816
ag1720
ag1703
ag1746
ag1682
ag1782
asg21
g4681
sg22
I00
sbsg655
g650
sS'IDN7DRP0'
p4687
g1
(g10
g3
NtRp4688
(dp4689
g13
S'IDNEZ5P1'
p4690
sg15
I1
sg16
(lp4691
sg18
I1
sg19
(lp4692
g3413
ag3254
asg21
g4687
sg22
I00
sbsS'IDBTFQJ1'
p4693
g1
(g10
g3
NtRp4694
(dp4695
g13
g3238
sg15
I1
sg16
(lp4696
sg18
I1
sg19
(lp4697
g3231
asg21
g4693
sg22
I00
sbsS'ID0EY9LZ'
p4698
g1
(g10
g3
NtRp4699
(dp4700
g13
S'IDW4CZ2T'
p4701
sg15
I1
sg16
(lp4702
sg18
I1
sg19
(lp4703
g194
ag211
ag244
ag275
ag106
ag296
ag151
ag305
ag318
ag411
asg21
g4698
sg22
I00
sbsS'IDQCZ2ES'
p4704
g1
(g10
g3
NtRp4705
(dp4706
g13
S'IDB3HHOR'
p4707
sg15
I1
sg16
(lp4708
sg18
I1
sg19
(lp4709
g172
ag181
ag194
ag211
ag244
ag106
ag151
ag408
asg21
g4704
sg22
I00
sbsS'ID40K7TP'
p4710
g1
(g10
g3
NtRp4711
(dp4712
g13
S'ID9GCYAR'
p4713
sg15
I1
sg16
(lp4714
sg18
I1
sg19
(lp4715
g1746
ag305
ag1816
ag1703
ag1782
ag1720
ag1682
ag1773
asg21
g4710
sg22
I00
sbsS'IDL97TN5'
p4716
g1
(g10
g3
NtRp4717
(dp4718
g13
S'ID299SFR'
p4719
sg15
I1
sg16
(lp4720
sg18
I1
sg19
(lp4721
g2843
ag3400
asg21
g4716
sg22
I00
sbsS'IDWODDX5'
p4722
g1
(g10
g3
NtRp4723
(dp4724
g13
S'ID94Y8XL'
p4725
sg15
I1
sg16
(lp4726
sg18
I1
sg19
(lp4727
g194
ag211
ag106
ag151
ag1100
ag405
asg21
g4722
sg22
I00
sbsS'IDK6ZSZI'
p4728
g1
(g10
g3
NtRp4729
(dp4730
g13
S'IDGH7LTV'
p4731
sg15
I0
sg16
(lp4732
sg18
I0
sg19
(lp4733
g1816
ag3118
ag1746
ag1682
asg21
g4728
sg22
I00
sbsS'ID62EERL'
p4734
g1
(g10
g3
NtRp4735
(dp4736
g13
S'ID1SGSY9'
p4737
sg15
I1
sg16
(lp4738
sg18
I1
sg19
(lp4739
g3413
ag3254
asg21
g4734
sg22
I00
sbsS'IDQIMSSF'
p4740
g1
(g10
g3
NtRp4741
(dp4742
g13
S'IDCKIUQ1'
p4743
sg15
I1
sg16
(lp4744
sg18
I1
sg19
(lp4745
g1816
ag1733
ag1720
ag1703
ag1682
ag1673
ag1746
asg21
g4740
sg22
I00
sbsS'IDBLIBOF'
p4746
g1
(g10
g3
NtRp4747
(dp4748
g13
S'IDPFONS6'
p4749
sg15
I1
sg16
(lp4750
sg18
I1
sg19
(lp4751
g1746
ag305
ag1816
ag1703
ag1782
ag1720
ag1682
ag1773
asg21
g4746
sg22
I00
sbsS'IDINF8IJ'
p4752
g1
(g10
g3
NtRp4753
(dp4754
g13
S'ID8MLJ8J'
p4755
sg15
I1
sg16
(lp4756
sg18
I1
sg19
(lp4757
g211
ag106
ag151
ag1072
ag194
ag405
asg21
g4752
sg22
I00
sbsS'IDKLT8JZ'
p4758
g1
(g10
g3
NtRp4759
(dp4760
g13
S'IDF3JXYP'
p4761
sg15
I1
sg16
(lp4762
sg18
I1
sg19
(lp4763
g3118
ag1746
ag1682
ag1816
ag1682
ag3118
ag1746
ag1816
asg21
g4758
sg22
I00
sbsS'IDECMM5W'
p4764
g1
(g10
g3
NtRp4765
(dp4766
g13
S'IDLY4JLG'
p4767
sg15
I1
sg16
(lp4768
sg18
I1
sg19
(lp4769
g3198
ag2744
ag2864
ag3155
ag3267
ag2864
ag3198
ag2744
ag3155
asg21
g4764
sg22
I00
sbsS'IDAUXZOB'
p4770
g1
(g10
g3
NtRp4771
(dp4772
g13
S'IDIZLQ8O'
p4773
sg15
I1
sg16
(lp4774
sg18
I1
sg19
(lp4775
g194
ag211
ag244
ag275
ag106
ag296
ag151
ag305
ag318
ag405
ag414
asg21
g4770
sg22
I00
sbsS'ID8YKNIH'
p4776
g1
(g10
g3
NtRp4777
(dp4778
g13
S'ID03TTDN'
p4779
sg15
I0
sg16
(lp4780
sg18
I0
sg19
(lp4781
g1746
ag1682
ag1816
ag3118
asg21
g4776
sg22
I00
sbsS'IDZ8GP7U'
p4782
g1
(g10
g3
NtRp4783
(dp4784
g13
S'IDBBHIXG'
p4785
sg15
I1
sg16
(lp4786
sg18
I1
sg19
(lp4787
g3198
ag3155
ag3315
ag2864
ag3198
ag2744
ag3155
asg21
g4782
sg22
I00
sbsS'IDIUF2KM'
p4788
g1
(g10
g3
NtRp4789
(dp4790
g13
S'IDJ31Z3O'
p4791
sg15
I1
sg16
(lp4792
sg18
I1
sg19
(lp4793
g211
ag106
ag305
ag275
ag296
ag194
ag151
ag318
ag244
ag265
asg21
g4788
sg22
I00
sbsS'IDL4U85U'
p4794
g1
(g10
g3
NtRp4795
(dp4796
g13
S'ID02KZYU'
p4797
sg15
I1
sg16
(lp4798
sg18
I1
sg19
(lp4799
g211
ag244
ag106
ag151
ag172
ag181
ag194
ag408
asg21
g4794
sg22
I00
sbsS'ID48TZVT'
p4800
g1
(g10
g3
NtRp4801
(dp4802
g13
S'IDGJVFLP'
p4803
sg15
I1
sg16
(lp4804
sg18
I1
sg19
(lp4805
g106
ag151
ag172
ag181
ag194
ag211
ag244
ag265
asg21
g4800
sg22
I00
sbsS'IDCIP5J8'
p4806
g1
(g10
g3
NtRp4807
(dp4808
g13
S'IDK1NU3W'
p4809
sg15
I1
sg16
(lp4810
sg18
I1
sg19
(lp4811
g172
ag181
ag194
ag211
ag244
ag106
ag151
ag265
asg21
g4806
sg22
I00
sbsS'IDRSS8ON'
p4812
g1
(g10
g3
NtRp4813
(dp4814
g13
S'IDZQ94K1'
p4815
sg15
I1
sg16
(lp4816
sg18
I1
sg19
(lp4817
g194
ag211
ag244
ag275
ag106
ag296
ag151
ag305
ag318
asg21
g4812
sg22
I00
sbsS'ID6TTQD5'
p4818
g1
(g10
g3
NtRp4819
(dp4820
g13
S'IDB1QTZU'
p4821
sg15
I1
sg16
(lp4822
sg18
I1
sg19
(lp4823
g305
ag318
ag194
ag211
ag244
ag275
ag106
ag296
ag151
ag194
ag244
ag106
ag151
ag2877
ag296
asg21
g4818
sg22
I00
sbsS'ID4UWT7P'
p4824
g1
(g10
g3
NtRp4825
(dp4826
g13
S'ID22QBZR'
p4827
sg15
I1
sg16
(lp4828
sg18
I1
sg19
(lp4829
g3198
ag3155
ag3267
ag2864
ag3198
ag2744
ag3155
asg21
g4824
sg22
I00
sbsS'IDQDNMJ6'
p4830
g1
(g10
g3
NtRp4831
(dp4832
g13
S'IDHAXOX3'
p4833
sg15
I1
sg16
(lp4834
sg18
I1
sg19
(lp4835
g1703
ag1682
ag1782
ag1773
ag1746
ag1720
asg21
g4830
sg22
I00
sbsS'ID0QEPQ6'
p4836
g1
(g10
g3
NtRp4837
(dp4838
g13
S'ID7V7OW4'
p4839
sg15
I1
sg16
(lp4840
sg18
I1
sg19
(lp4841
g3198
ag3155
ag3231
ag2864
ag3198
ag2744
ag3155
asg21
g4836
sg22
I00
sbsS'IDNI0YVS'
p4842
g1
(g10
g3
NtRp4843
(dp4844
g13
S'ID85NE1W'
p4845
sg15
I1
sg16
(lp4846
sg18
I1
sg19
(lp4847
g1816
ag2652
ag1746
ag1733
ag1682
ag1682
ag1746
ag1816
ag1733
asg21
g4842
sg22
I00
sbsg59
g60
sS'IDU6L4HH'
p4848
g1
(g10
g3
NtRp4849
(dp4850
g13
S'ID75VNVD'
p4851
sg15
I1
sg16
(lp4852
sg18
I1
sg19
(lp4853
g296
ag106
ag194
ag305
ag151
ag244
ag318
ag275
ag211
ag265
asg21
g4848
sg22
I00
sbsS'IDXA6PO6'
p4854
g1
(g10
g3
NtRp4855
(dp4856
g13
S'IDL2I5GP'
p4857
sg15
I1
sg16
(lp4858
sg18
I1
sg19
(lp4859
g1746
ag305
ag1816
ag1703
ag1782
ag1720
ag1682
ag1773
asg21
g4854
sg22
I00
sbsS'IDZ1SGNS'
p4860
g1
(g10
g3
NtRp4861
(dp4862
g13
S'IDPQ0HBQ'
p4863
sg15
I1
sg16
(lp4864
sg18
I1
sg19
(lp4865
g2864
ag3198
ag2744
ag3155
ag3576
ag2864
ag3198
ag2744
ag3155
asg21
g4860
sg22
I00
sbsS'IDNNYLFF'
p4866
g1
(g10
g3
NtRp4867
(dp4868
g13
S'IDZV3XA6'
p4869
sg15
I1
sg16
(lp4870
sg18
I1
sg19
(lp4871
g3198
ag3155
ag3558
ag2864
ag3198
ag2744
ag3155
asg21
g4866
sg22
I00
sbsS'ID60G0US'
p4872
g1
(g10
g3
NtRp4873
(dp4874
g13
S'IDSBUNP6'
p4875
sg15
I1
sg16
(lp4876
sg18
I1
sg19
(lp4877
g151
ag333
ag194
ag211
ag106
ag408
asg21
g4872
sg22
I00
sbsS'ID0KJPMH'
p4878
g1
(g10
g3
NtRp4879
(dp4880
g13
S'ID82P3J3'
p4881
sg15
I1
sg16
(lp4882
sg18
I1
sg19
(lp4883
g1021
ag194
ag211
ag106
ag151
ag414
asg21
g4878
sg22
I00
sbsg1850
g1811
sS'IDCHWKC6'
p4884
g1
(g10
g3
NtRp4885
(dp4886
g13
S'IDXR7TTI'
p4887
sg15
I1
sg16
(lp4888
sg18
I1
sg19
(lp4889
g1682
ag3118
ag1816
ag1682
ag3118
ag1746
ag1816
asg21
g4884
sg22
I00
sbsS'IDVGILN9'
p4890
g1
(g10
g3
NtRp4891
(dp4892
g13
S'IDB9E8IB'
p4893
sg15
I1
sg16
(lp4894
sg18
I1
sg19
(lp4895
g151
ag305
ag318
ag194
ag211
ag244
ag275
ag106
ag296
asg21
g4890
sg22
I00
sbsS'IDJ5CI15'
p4896
g1
(g10
g3
NtRp4897
(dp4898
g13
S'IDNC9SGC'
p4899
sg15
I1
sg16
(lp4900
sg18
I1
sg19
(lp4901
g194
ag211
ag244
ag106
ag151
ag172
ag181
ag408
asg21
g4896
sg22
I00
sbsS'IDXUMGXO'
p4902
g1
(g10
g3
NtRp4903
(dp4904
g13
S'IDN4GU9H'
p4905
sg15
I0
sg16
(lp4906
sg18
I0
sg19
(lp4907
g1682
ag1816
ag3118
ag1682
ag3118
ag1746
ag1816
asg21
g4902
sg22
I00
sbsS'IDQMKA45'
p4908
g1
(g10
g3
NtRp4909
(dp4910
g13
S'IDCLRBV1'
p4911
sg15
I1
sg16
(lp4912
sg18
I1
sg19
(lp4913
g3198
ag3155
ag3276
ag2864
ag3198
ag2744
ag3155
asg21
g4908
sg22
I00
sbsS'IDSKDS77'
p4914
g1
(g10
g3
NtRp4915
(dp4916
g13
S'ID7GLUYZ'
p4917
sg15
I1
sg16
(lp4918
sg18
I1
sg19
(lp4919
g1746
ag305
ag1816
ag1703
ag1782
ag1720
ag1682
ag1773
asg21
g4914
sg22
I00
sbsS'IDUD23LT'
p4920
g1
(g10
g3
NtRp4921
(dp4922
g13
S'IDW06C8O'
p4923
sg15
I1
sg16
(lp4924
sg18
I1
sg19
(lp4925
g1682
ag3118
ag1746
ag1816
ag1682
ag3118
ag1746
ag1816
asg21
g4920
sg22
I00
sbsg2517
g2512
sS'IDE70CRF'
p4926
g1
(g10
g3
NtRp4927
(dp4928
g13
S'IDZ1AQQ6'
p4929
sg15
I1
sg16
(lp4930
sg18
I1
sg19
(lp4931
g3198
ag3155
ag3267
ag2864
ag3198
ag2744
ag3155
asg21
g4926
sg22
I00
sbsS'IDD3RM31'
p4932
g1
(g10
g3
NtRp4933
(dp4934
g13
S'IDCL6IBN'
p4935
sg15
I1
sg16
(lp4936
sg18
I1
sg19
(lp4937
g305
ag318
ag194
ag211
ag244
ag275
ag106
ag296
ag151
asg21
g4932
sg22
I00
sbsS'ID7KPCK3'
p4938
g1
(g10
g3
NtRp4939
(dp4940
g13
g3583
sg15
I1
sg16
(lp4941
sg18
I1
sg19
(lp4942
g3576
asg21
g4938
sg22
I00
sbsS'IDGIFF99'
p4943
g1
(g10
g3
NtRp4944
(dp4945
g13
S'ID9V4JY9'
p4946
sg15
I1
sg16
(lp4947
sg18
I1
sg19
(lp4948
g1746
ag3000
ag2694
ag3611
ag4284
asg21
g4943
sg22
I00
sbsS'IDJT3S0W'
p4949
g1
(g10
g3
NtRp4950
(dp4951
g13
S'IDKLL6BS'
p4952
sg15
I1
sg16
(lp4953
sg18
I1
sg19
(lp4954
g2652
ag1746
ag1733
ag1682
ag1816
ag1682
ag1746
ag1816
ag1733
asg21
g4949
sg22
I00
sbsS'IDABF0ZJ'
p4955
g1
(g10
g3
NtRp4956
(dp4957
g13
S'ID0E411R'
p4958
sg15
I1
sg16
(lp4959
sg18
I1
sg19
(lp4960
g211
ag244
ag106
ag151
ag172
ag181
ag194
ag265
asg21
g4955
sg22
I00
sbsS'ID8FVXTZ'
p4961
g1
(g10
g3
NtRp4962
(dp4963
g13
S'IDCI6OBQ'
p4964
sg15
I1
sg16
(lp4965
sg18
I1
sg19
(lp4966
g3198
ag3155
ag3231
ag2864
ag3198
ag2744
ag3155
asg21
g4961
sg22
I00
sbsS'IDVQZ7NX'
p4967
g1
(g10
g3
NtRp4968
(dp4969
g13
S'IDLZVCDL'
p4970
sg15
I1
sg16
(lp4971
sg18
I1
sg19
(lp4972
g1682
ag3118
ag1816
ag1682
ag3118
ag1746
ag1816
asg21
g4967
sg22
I00
sbsS'IDHPZ8XW'
p4973
g1
(g10
g3
NtRp4974
(dp4975
g13
S'IDJUH6SD'
p4976
sg15
I1
sg16
(lp4977
sg18
I1
sg19
(lp4978
g3198
ag3155
ag3315
ag2864
ag3198
ag2744
ag3155
asg21
g4973
sg22
I00
sbsS'ID3ZXEYT'
p4979
g1
(g10
g3
NtRp4980
(dp4981
g13
S'IDKJOL7D'
p4982
sg15
I1
sg16
(lp4983
sg18
I1
sg19
(lp4984
g1682
ag3118
ag1746
ag1816
ag1682
ag3118
ag1746
ag1816
asg21
g4979
sg22
I00
sbsS'IDYM48IN'
p4985
g1
(g10
g3
NtRp4986
(dp4987
g13
S'IDXCE0ZK'
p4988
sg15
I1
sg16
(lp4989
sg18
I1
sg19
(lp4990
g1746
ag3473
ag1797
ag1682
ag1703
ag1763
asg21
g4985
sg22
I00
sbsS'IDE96G26'
p4991
g1
(g10
g3
NtRp4992
(dp4993
g13
g3592
sg15
I1
sg16
(lp4994
sg18
I1
sg19
(lp4995
g3585
asg21
g4991
sg22
I00
sbsS'IDUWSCKJ'
p4996
g1
(g10
g3
NtRp4997
(dp4998
g13
S'ID0P3Q0W'
p4999
sg15
I1
sg16
(lp5000
sg18
I1
sg19
(lp5001
g3198
ag3155
ag3576
ag2864
ag3198
ag2744
ag3155
asg21
g4996
sg22
I00
sbsS'IDWMWM6K'
p5002
g1
(g10
g3
NtRp5003
(dp5004
g13
S'IDI45QCC'
p5005
sg15
I0
sg16
(lp5006
sg18
I0
sg19
(lp5007
g1746
ag1837
ag1682
asg21
g5002
sg22
I00
sbsS'ID4DR7YY'
p5008
g1
(g10
g3
NtRp5009
(dp5010
g13
S'ID56RMGY'
p5011
sg15
I1
sg16
(lp5012
sg18
I1
sg19
(lp5013
g151
ag1072
ag194
ag211
ag106
ag414
asg21
g5008
sg22
I00
sbsS'IDA474BL'
p5014
g1
(g10
g3
NtRp5015
(dp5016
g13
S'ID5K6FW0'
p5017
sg15
I1
sg16
(lp5018
sg18
I1
sg19
(lp5019
g3118
ag1682
ag1816
ag1682
ag3118
ag1746
ag1816
asg21
g5014
sg22
I00
sbsS'ID2FNGI5'
p5020
g1
(g10
g3
NtRp5021
(dp5022
g13
S'ID0K5IZ8'
p5023
sg15
I1
sg16
(lp5024
sg18
I1
sg19
(lp5025
g3198
ag3155
ag3231
ag2864
ag3198
ag2744
ag3155
asg21
g5020
sg22
I00
sbsS'IDJWSO1D'
p5026
g1
(g10
g3
NtRp5027
(dp5028
g13
S'IDVPR17N'
p5029
sg15
I1
sg16
(lp5030
sg18
I1
sg19
(lp5031
g3198
ag3155
ag3267
ag2864
ag3198
ag2744
ag3155
asg21
g5026
sg22
I00
sbsS'IDB1KYO1'
p5032
g1
(g10
g3
NtRp5033
(dp5034
g13
S'ID5P1614'
p5035
sg15
I1
sg16
(lp5036
sg18
I1
sg19
(lp5037
g1816
ag1682
ag1673
ag1733
ag1746
ag1703
ag408
asg21
g5032
sg22
I00
sbsS'ID464UGG'
p5038
g1
(g10
g3
NtRp5039
(dp5040
g13
S'IDJQQLYJ'
p5041
sg15
I1
sg16
(lp5042
sg18
I1
sg19
(lp5043
g1746
ag1733
ag1682
ag1816
ag2652
ag1682
ag1746
ag1816
ag1733
asg21
g5038
sg22
I00
sbsg417
g391
sS'ID25EBYG'
p5044
g1
(g10
g3
NtRp5045
(dp5046
g13
g2742
sg15
I1
sg16
(lp5047
sg18
I1
sg19
(lp5048
g2735
asg21
g5044
sg22
I00
sbsS'IDNPCYWU'
p5049
g1
(g10
g3
NtRp5050
(dp5051
g13
S'IDMIWBKH'
p5052
sg15
I1
sg16
(lp5053
sg18
I1
sg19
(lp5054
g3198
ag3155
ag3240
ag2864
ag3198
ag2744
ag3155
asg21
g5049
sg22
I00
sbsS'ID67SFLE'
p5055
g1
(g10
g3
NtRp5056
(dp5057
g13
S'IDZMQ0RH'
p5058
sg15
I1
sg16
(lp5059
sg18
I1
sg19
(lp5060
g3198
ag3155
ag2783
ag2864
ag3198
ag2744
ag3155
asg21
g5055
sg22
I00
sbsS'IDZFDLQ1'
p5061
g1
(g10
g3
NtRp5062
(dp5063
g13
S'ID19QYW6'
p5064
sg15
I1
sg16
(lp5065
sg18
I1
sg19
(lp5066
g3198
ag3155
ag3576
ag2864
ag3198
ag2744
ag3155
asg21
g5061
sg22
I00
sbsS'ID7XF4AB'
p5067
g1
(g10
g3
NtRp5068
(dp5069
g13
S'IDI4FLJX'
p5070
sg15
I1
sg16
(lp5071
sg18
I1
sg19
(lp5072
g296
ag151
ag305
ag318
ag194
ag211
ag244
ag275
ag106
asg21
g5067
sg22
I00
sbsS'IDIWRHL1'
p5073
g1
(g10
g3
NtRp5074
(dp5075
g13
S'IDUV8SPR'
p5076
sg15
I1
sg16
(lp5077
sg18
I1
sg19
(lp5078
g106
ag194
ag151
ag333
asg21
g5073
sg22
I00
sbsS'IDB1I3GQ'
p5079
g1
(g10
g3
NtRp5080
(dp5081
g13
S'IDMZDRJL'
p5082
sg15
I1
sg16
(lp5083
sg18
I1
sg19
(lp5084
g1007
ag414
asg21
g5079
sg22
I00
sbsS'ID80HJ9L'
p5085
g1
(g10
g3
NtRp5086
(dp5087
g13
S'IDROT2SY'
p5088
sg15
I1
sg16
(lp5089
sg18
I1
sg19
(lp5090
g1816
ag3118
ag1682
ag1682
ag3118
ag1746
ag1816
asg21
g5085
sg22
I00
sbsS'IDNG5LF3'
p5091
g1
(g10
g3
NtRp5092
(dp5093
g13
S'IDTKA5N2'
p5094
sg15
I1
sg16
(lp5095
sg18
I1
sg19
(lp5096
g151
ag172
ag181
ag194
ag211
ag244
ag106
ag408
asg21
g5091
sg22
I00
sbsS'ID2QZ8YG'
p5097
g1
(g10
g3
NtRp5098
(dp5099
g13
S'IDOMPBF6'
p5100
sg15
I1
sg16
(lp5101
sg18
I1
sg19
(lp5102
g3198
ag3155
ag3558
ag2864
ag3198
ag2744
ag3155
asg21
g5097
sg22
I00
sbsS'IDVNGPYV'
p5103
g1
(g10
g3
NtRp5104
(dp5105
g13
S'ID1VNTMV'
p5106
sg15
I1
sg16
(lp5107
sg18
I1
sg19
(lp5108
g2757
ag3528
asg21
g5103
sg22
I00
sbsS'IDXLIBL5'
p5109
g1
(g10
g3
NtRp5110
(dp5111
g13
S'ID6JE5O4'
p5112
sg15
I1
sg16
(lp5113
sg18
I1
sg19
(lp5114
g3198
ag3155
ag3267
ag2864
ag3198
ag2744
ag3155
asg21
g5109
sg22
I00
sbsS'IDO0Y68W'
p5115
g1
(g10
g3
NtRp5116
(dp5117
g13
S'IDJJXI4W'
p5118
sg15
I1
sg16
(lp5119
sg18
I1
sg19
(lp5120
g3198
ag2744
ag3155
ag3231
ag2864
asg21
g5115
sg22
I00
sbsS'IDOUG312'
p5121
g1
(g10
g3
NtRp5122
(dp5123
g13
S'ID6MNLCW'
p5124
sg15
I1
sg16
(lp5125
sg18
I1
sg19
(lp5126
g3198
ag2744
ag2864
ag3155
ag2783
ag2864
ag3198
ag2744
ag3155
asg21
g5121
sg22
I00
sbsS'IDDQDFHH'
p5127
g1
(g10
g3
NtRp5128
(dp5129
g13
S'IDKKRUZW'
p5130
sg15
I1
sg16
(lp5131
sg18
I1
sg19
(lp5132
g3118
ag1746
ag1682
ag1816
asg21
g5127
sg22
I00
sbsg602
g597
sS'IDSJ2RCF'
p5133
g1
(g10
g3
NtRp5134
(dp5135
g13
S'IDGP6F6R'
p5136
sg15
I1
sg16
(lp5137
sg18
I1
sg19
(lp5138
g333
ag194
ag211
ag106
ag151
asg21
g5133
sg22
I00
sbsS'IDYPUVLT'
p5139
g1
(g10
g3
NtRp5140
(dp5141
g13
S'IDG4AQJB'
p5142
sg15
I1
sg16
(lp5143
sg18
I1
sg19
(lp5144
g194
ag151
ag2877
ag244
ag106
ag296
asg21
g5139
sg22
I00
sbsS'IDG7J0HR'
p5145
g1
(g10
g3
NtRp5146
(dp5147
g13
S'IDNTMJUM'
p5148
sg15
I1
sg16
(lp5149
sg18
I1
sg19
(lp5150
g211
ag151
ag106
ag1021
ag194
ag405
asg21
g5145
sg22
I00
sbsg702
g697
sg1037
g1032
sS'IDEJU5X2'
p5151
g1
(g10
g3
NtRp5152
(dp5153
g13
S'IDXOPBYK'
p5154
sg15
I1
sg16
(lp5155
sg18
I1
sg19
(lp5156
g1746
ag305
ag1816
ag1703
ag1782
ag1720
ag1682
ag1773
asg21
g5151
sg22
I00
sbsS'IDOHU6ZZ'
p5157
g1
(g10
g3
NtRp5158
(dp5159
g13
S'ID48A82Z'
p5160
sg15
I1
sg16
(lp5161
sg18
I1
sg19
(lp5162
g2864
ag3198
ag2744
ag3155
ag3276
asg21
g5157
sg22
I00
sbsS'ID2GN2KK'
p5163
g1
(g10
g3
NtRp5164
(dp5165
g13
S'ID1LXM7L'
p5166
sg15
I1
sg16
(lp5167
sg18
I1
sg19
(lp5168
g3198
ag3155
ag3558
ag2864
ag3198
ag2744
ag3155
asg21
g5163
sg22
I00
sbsS'IDAUOPCN'
p5169
g1
(g10
g3
NtRp5170
(dp5171
g13
S'ID7ZSBBP'
p5172
sg15
I1
sg16
(lp5173
sg18
I1
sg19
(lp5174
g349
ag194
ag211
ag362
ag106
ag151
ag476
asg21
g5169
sg22
I00
sbsS'IDEC22DC'
p5175
g1
(g10
g3
NtRp5176
(dp5177
g13
S'ID1SP52I'
p5178
sg15
I1
sg16
(lp5179
sg18
I1
sg19
(lp5180
g1773
ag1720
ag1782
ag1682
ag1703
ag1746
asg21
g5175
sg22
I00
sbsS'IDDDAZ8G'
p5181
g1
(g10
g3
NtRp5182
(dp5183
g13
S'IDG6U9AK'
p5184
sg15
I1
sg16
(lp5185
sg18
I1
sg19
(lp5186
g1746
ag305
ag1816
ag1703
ag1782
ag1720
ag1682
ag1773
asg21
g5181
sg22
I00
sbsS'IDFKQC0L'
p5187
g1
(g10
g3
NtRp5188
(dp5189
g13
S'IDKL9SRF'
p5190
sg15
I1
sg16
(lp5191
sg18
I1
sg19
(lp5192
g1682
ag1816
ag3118
ag1746
asg21
g5187
sg22
I00
sbsS'ID8V7TTK'
p5193
g1
(g10
g3
NtRp5194
(dp5195
g13
S'IDAYA3TY'
p5196
sg15
I1
sg16
(lp5197
sg18
I1
sg19
(lp5198
g1746
ag1816
ag1720
ag1703
ag1782
ag1682
ag1773
ag305
ag408
asg21
g5193
sg22
I00
sbsS'IDS6AF84'
p5199
g1
(g10
g3
NtRp5200
(dp5201
g13
S'ID0UPXOG'
p5202
sg15
I1
sg16
(lp5203
sg18
I1
sg19
(lp5204
g1682
ag3118
ag1816
ag1682
ag3118
ag1746
ag1816
asg21
g5199
sg22
I00
sbsS'ID7AFDHG'
p5205
g1
(g10
g3
NtRp5206
(dp5207
g13
S'IDR77PGH'
p5208
sg15
I1
sg16
(lp5209
sg18
I1
sg19
(lp5210
g1007
ag405
asg21
g5205
sg22
I00
sbsg47
g48
sS'IDEH3ENR'
p5211
g1
(g10
g3
NtRp5212
(dp5213
g13
S'ID7UNRGY'
p5214
sg15
I1
sg16
(lp5215
sg18
I1
sg19
(lp5216
g396
ag476
asg21
g5211
sg22
I00
sbsg71
g72
sS'IDLXFJ2Y'
p5217
g1
(g10
g3
NtRp5218
(dp5219
g13
S'IDQ2TZBU'
p5220
sg15
I1
sg16
(lp5221
sg18
I1
sg19
(lp5222
g2652
ag1746
ag1733
ag1682
ag1816
ag1682
ag1746
ag1816
ag1733
asg21
g5217
sg22
I00
sbsS'IDA0FFR8'
p5223
g1
(g10
g3
NtRp5224
(dp5225
g13
S'ID0GWOAH'
p5226
sg15
I1
sg16
(lp5227
sg18
I1
sg19
(lp5228
g211
ag244
ag106
ag151
ag172
ag181
ag194
ag265
asg21
g5223
sg22
I00
sbsS'IDU99A3W'
p5229
g1
(g10
g3
NtRp5230
(dp5231
g13
S'IDGHWURN'
p5232
sg15
I1
sg16
(lp5233
sg18
I1
sg19
(lp5234
g396
asg21
g5229
sg22
I00
sbsS'IDIUDY63'
p5235
g1
(g10
g3
NtRp5236
(dp5237
g13
S'ID0Q33C8'
p5238
sg15
I1
sg16
(lp5239
sg18
I1
sg19
(lp5240
g211
ag106
ag1682
ag1797
ag1746
asg21
g5235
sg22
I00
sbsS'ID29Y9ZY'
p5241
g1
(g10
g3
NtRp5242
(dp5243
g13
S'IDJMFHB7'
p5244
sg15
I0
sg16
(lp5245
sg18
I0
sg19
(lp5246
g2991
ag1746
asg21
g5241
sg22
I00
sbsg744
g739
sS'IDTUJISO'
p5247
g1
(g10
g3
NtRp5248
(dp5249
g13
S'IDEHWL7Y'
p5250
sg15
I0
sg16
(lp5251
sg18
I0
sg19
(lp5252
g452
asg21
g5247
sg22
I00
sbsS'ID9913AQ'
p5253
g1
(g10
g3
NtRp5254
(dp5255
g13
S'IDGKUPTP'
p5256
sg15
I1
sg16
(lp5257
sg18
I1
sg19
(lp5258
g1682
ag3118
ag1816
ag1682
ag3118
ag1746
ag1816
asg21
g5253
sg22
I00
sbsg35
g36
sS'IDYXPST4'
p5259
g1
(g10
g3
NtRp5260
(dp5261
g13
S'IDLGJO7V'
p5262
sg15
I1
sg16
(lp5263
sg18
I1
sg19
(lp5264
g1816
ag1733
ag1720
ag1703
ag1682
ag1673
ag1746
asg21
g5259
sg22
I00
sbsS'IDT9S501'
p5265
g1
(g10
g3
NtRp5266
(dp5267
g13
S'ID38CPG9'
p5268
sg15
I1
sg16
(lp5269
sg18
I1
sg19
(lp5270
g3198
ag3155
ag3315
ag2864
ag3198
ag2744
ag3155
asg21
g5265
sg22
I00
sbsg2088
g2083
sS'IDR4QLZF'
p5271
g1
(g10
g3
NtRp5272
(dp5273
g13
S'ID9UKABH'
p5274
sg15
I1
sg16
(lp5275
sg18
I1
sg19
(lp5276
g3198
ag3155
ag3558
ag2864
ag3198
ag2744
ag3155
asg21
g5271
sg22
I00
sbsS'IDZQ6GEZ'
p5277
g1
(g10
g3
NtRp5278
(dp5279
g13
g2790
sg15
I1
sg16
(lp5280
sg18
I1
sg19
(lp5281
g2783
asg21
g5277
sg22
I00
sbsS'IDSUANFY'
p5282
g1
(g10
g3
NtRp5283
(dp5284
g13
S'ID4L369W'
p5285
sg15
I1
sg16
(lp5286
sg18
I1
sg19
(lp5287
g3585
ag2864
ag3198
ag2744
ag3155
asg21
g5282
sg22
I00
sbsS'ID8NMVZH'
p5288
g1
(g10
g3
NtRp5289
(dp5290
g13
S'IDU7JOO8'
p5291
sg15
I1
sg16
(lp5292
sg18
I1
sg19
(lp5293
g3198
ag3155
ag3315
ag2864
ag3198
ag2744
ag3155
asg21
g5288
sg22
I00
sbsS'IDYSP8Z1'
p5294
g1
(g10
g3
NtRp5295
(dp5296
g13
S'IDUKMPRO'
p5297
sg15
I1
sg16
(lp5298
sg18
I1
sg19
(lp5299
g3198
ag3155
ag3585
ag2864
ag3198
ag2744
ag3155
asg21
g5294
sg22
I00
sbsS'IDH46IEE'
p5300
g1
(g10
g3
NtRp5301
(dp5302
g13
S'ID8FAF7J'
p5303
sg15
I1
sg16
(lp5304
sg18
I1
sg19
(lp5305
g2652
ag1746
ag1733
ag1682
ag1816
ag1682
ag1746
ag1816
ag1733
asg21
g5300
sg22
I00
sbsS'IDF2IL61'
p5306
g1
(g10
g3
NtRp5307
(dp5308
g13
g3574
sg15
I1
sg16
(lp5309
sg18
I1
sg19
(lp5310
g3567
asg21
g5306
sg22
I00
sbsS'ID9O3RC5'
p5311
g1
(g10
g3
NtRp5312
(dp5313
g13
S'IDHV60RR'
p5314
sg15
I1
sg16
(lp5315
sg18
I1
sg19
(lp5316
g2797
ag3657
asg21
g5311
sg22
I00
sbsS'IDYB0LPI'
p5317
g1
(g10
g3
NtRp5318
(dp5319
g13
S'IDFC8EZ1'
p5320
sg15
I1
sg16
(lp5321
sg18
I1
sg19
(lp5322
g3198
ag3155
ag3585
ag2864
ag3198
ag2744
ag3155
asg21
g5317
sg22
I00
sbsg2347
g2342
sS'IDTT87GD'
p5323
g1
(g10
g3
NtRp5324
(dp5325
g13
S'ID9TB81L'
p5326
sg15
I0
sg16
(lp5327
sg18
I0
sg19
(lp5328
g1816
ag3118
ag1746
ag1682
asg21
g5323
sg22
I00
sbsS'IDA9DHEN'
p5329
g1
(g10
g3
NtRp5330
(dp5331
g13
S'IDO35166'
p5332
sg15
I1
sg16
(lp5333
sg18
I1
sg19
(lp5334
g275
ag296
ag194
ag151
ag318
ag244
ag211
ag106
ag305
ag408
asg21
g5329
sg22
I00
sbsS'ID1V28ZO'
p5335
g1
(g10
g3
NtRp5336
(dp5337
g13
S'IDQI4DH9'
p5338
sg15
I1
sg16
(lp5339
sg18
I1
sg19
(lp5340
g2966
ag1746
ag1703
ag1856
ag1763
asg21
g5335
sg22
I00
sbsS'IDJ8MD22'
p5341
g1
(g10
g3
NtRp5342
(dp5343
g13
S'ID3YEC64'
p5344
sg15
I1
sg16
(lp5345
sg18
I1
sg19
(lp5346
g2864
ag3198
ag2744
ag3155
ag2783
asg21
g5341
sg22
I00
sbsS'IDS4BNL0'
p5347
g1
(g10
g3
NtRp5348
(dp5349
g13
S'ID35WSL8'
p5350
sg15
I1
sg16
(lp5351
sg18
I1
sg19
(lp5352
g194
ag211
ag244
ag275
ag106
ag296
ag151
ag305
ag318
asg21
g5347
sg22
I00
sbsg971
g966
sS'IDR19UHZ'
p5353
g1
(g10
g3
NtRp5354
(dp5355
g13
S'IDYV4FO3'
p5356
sg15
I0
sg16
(lp5357
sg18
I0
sg19
(lp5358
g452
ag405
asg21
g5353
sg22
I00
sbsS'IDOXYZX0'
p5359
g1
(g10
g3
NtRp5360
(dp5361
g13
S'IDZJRDRB'
p5362
sg15
I1
sg16
(lp5363
sg18
I1
sg19
(lp5364
g211
ag244
ag106
ag151
ag172
ag181
ag194
ag265
asg21
g5359
sg22
I00
sbsS'IDKJUSSV'
p5365
g1
(g10
g3
NtRp5366
(dp5367
g13
S'IDZBNAAW'
p5368
sg15
I1
sg16
(lp5369
sg18
I1
sg19
(lp5370
g1682
ag1816
ag3118
ag1746
asg21
g5365
sg22
I00
sbsS'IDVUDJWN'
p5371
g1
(g10
g3
NtRp5372
(dp5373
g13
S'IDV98YFR'
p5374
sg15
I1
sg16
(lp5375
sg18
I1
sg19
(lp5376
g151
ag172
ag181
ag194
ag211
ag244
ag106
ag265
asg21
g5371
sg22
I00
sbsS'ID2PJBIP'
p5377
g1
(g10
g3
NtRp5378
(dp5379
g13
S'IDHW58WE'
p5380
sg15
I0
sg16
(lp5381
sg18
I0
sg19
(lp5382
g1682
ag3118
ag1816
ag1682
ag3118
ag1746
ag1816
asg21
g5377
sg22
I00
sbsS'ID5MTT69'
p5383
g1
(g10
g3
NtRp5384
(dp5385
g13
S'IDLT710K'
p5386
sg15
I1
sg16
(lp5387
sg18
I1
sg19
(lp5388
g1816
ag1733
ag1720
ag1703
ag1682
ag1673
ag1746
asg21
g5383
sg22
I00
sbsS'IDL0PPVV'
p5389
g1
(g10
g3
NtRp5390
(dp5391
g13
S'IDK0FBYC'
p5392
sg15
I1
sg16
(lp5393
sg18
I1
sg19
(lp5394
g2652
ag1746
ag1733
ag1682
ag1816
ag1682
ag1746
ag1816
ag1733
asg21
g5389
sg22
I00
sbsS'IDJDUJI6'
p5395
g1
(g10
g3
NtRp5396
(dp5397
g13
S'IDM7AQ4B'
p5398
sg15
I1
sg16
(lp5399
sg18
I1
sg19
(lp5400
g1682
ag1816
ag1733
ag1682
ag1746
ag1816
ag1733
ag1673
ag1720
ag1703
asg21
g5395
sg22
I00
sbsS'IDLO2EJ4'
p5401
g1
(g10
g3
NtRp5402
(dp5403
g13
S'IDJZL2WO'
p5404
sg15
I1
sg16
(lp5405
sg18
I1
sg19
(lp5406
g3198
ag3155
ag3567
ag2864
ag3198
ag2744
ag3155
asg21
g5401
sg22
I00
sbsS'ID5MS73B'
p5407
g1
(g10
g3
NtRp5408
(dp5409
g13
S'IDWD3CMS'
p5410
sg15
I1
sg16
(lp5411
sg18
I1
sg19
(lp5412
g172
ag181
ag194
ag211
ag244
ag106
ag151
ag265
asg21
g5407
sg22
I00
sbsS'IDYAQXCU'
p5413
g1
(g10
g3
NtRp5414
(dp5415
g13
S'IDXW34BZ'
p5416
sg15
I1
sg16
(lp5417
sg18
I1
sg19
(lp5418
g305
ag318
ag194
ag211
ag244
ag275
ag106
ag296
ag151
ag411
asg21
g5413
sg22
I00
sbsS'ID2ZKG3O'
p5419
g1
(g10
g3
NtRp5420
(dp5421
g13
S'IDJOIV01'
p5422
sg15
I1
sg16
(lp5423
sg18
I1
sg19
(lp5424
g1746
ag1682
ag1703
ag1797
ag106
asg21
g5419
sg22
I00
sbsg538
g533
sS'IDWN0NQZ'
p5425
g1
(g10
g3
NtRp5426
(dp5427
g13
S'IDXH7MHZ'
p5428
sg15
I1
sg16
(lp5429
sg18
I1
sg19
(lp5430
g1816
ag2652
ag1746
ag1733
ag1682
ag1682
ag1746
ag1816
ag1733
asg21
g5425
sg22
I00
sbsS'IDQ7SNX6'
p5431
g1
(g10
g3
NtRp5432
(dp5433
g13
S'IDM9HQEX'
p5434
sg15
I1
sg16
(lp5435
sg18
I1
sg19
(lp5436
g1816
ag2652
ag1746
ag1733
ag1682
ag1682
ag1746
ag1816
ag1733
asg21
g5431
sg22
I00
sbsS'IDMT8AJN'
p5437
g1
(g10
g3
NtRp5438
(dp5439
g13
g3274
sg15
I1
sg16
(lp5440
sg18
I1
sg19
(lp5441
g3267
asg21
g5437
sg22
I00
sbsS'IDRLRX1M'
p5442
g1
(g10
g3
NtRp5443
(dp5444
g13
S'IDKA0CS4'
p5445
sg15
I1
sg16
(lp5446
sg18
I1
sg19
(lp5447
g181
ag172
ag194
ag211
ag244
ag106
ag151
ag408
asg21
g5442
sg22
I00
sbsS'IDRLC9O2'
p5448
g1
(g10
g3
NtRp5449
(dp5450
g13
S'IDFQBGHV'
p5451
sg15
I1
sg16
(lp5452
sg18
I1
sg19
(lp5453
g1837
ag1746
ag1682
ag1703
ag408
asg21
g5448
sg22
I00
sbsS'IDNNPLEA'
p5454
g1
(g10
g3
NtRp5455
(dp5456
g13
S'ID4DIJIC'
p5457
sg15
I1
sg16
(lp5458
sg18
I1
sg19
(lp5459
g3198
ag3155
ag2783
ag2864
ag3198
ag2744
ag3155
asg21
g5454
sg22
I00
sbsS'IDVJFX9R'
p5460
g1
(g10
g3
NtRp5461
(dp5462
g13
S'ID7A7JTZ'
p5463
sg15
I1
sg16
(lp5464
sg18
I1
sg19
(lp5465
g1682
ag1816
ag2652
ag1746
ag1733
ag1682
ag1746
ag1816
ag1733
asg21
g5460
sg22
I00
sbsS'IDRMHTW3'
p5466
g1
(g10
g3
NtRp5467
(dp5468
g13
S'IDFKEGRO'
p5469
sg15
I1
sg16
(lp5470
sg18
I1
sg19
(lp5471
g244
ag106
ag151
ag172
ag181
ag194
ag211
ag265
asg21
g5466
sg22
I00
sbsg77
g78
sS'IDDBMN6Z'
p5472
g1
(g10
g3
NtRp5473
(dp5474
g13
S'IDLSAUMI'
p5475
sg15
I1
sg16
(lp5476
sg18
I1
sg19
(lp5477
g1733
ag1816
ag1703
ag1682
ag1673
ag1746
ag1720
asg21
g5472
sg22
I00
sbsS'IDTQU3PK'
p5478
g1
(g10
g3
NtRp5479
(dp5480
g13
S'ID1FKXFL'
p5481
sg15
I1
sg16
(lp5482
sg18
I1
sg19
(lp5483
g3198
ag3155
ag3231
ag2864
ag3198
ag2744
ag3155
asg21
g5478
sg22
I00
sbsS'ID71FHY9'
p5484
g1
(g10
g3
NtRp5485
(dp5486
g13
S'IDIKTE1E'
p5487
sg15
I1
sg16
(lp5488
sg18
I1
sg19
(lp5489
g1682
ag1816
ag3118
ag1746
ag1682
ag3118
ag1746
ag1816
asg21
g5484
sg22
I00
sbsS'IDPTHIPO'
p5490
g1
(g10
g3
NtRp5491
(dp5492
g13
S'ID3P9V3Z'
p5493
sg15
I1
sg16
(lp5494
sg18
I1
sg19
(lp5495
g211
ag244
ag106
ag151
ag172
ag181
ag194
asg21
g5490
sg22
I00
sbsS'IDVSJQB2'
p5496
g1
(g10
g3
NtRp5497
(dp5498
g13
S'IDLYSIVT'
p5499
sg15
I1
sg16
(lp5500
sg18
I1
sg19
(lp5501
g1816
ag1733
ag1720
ag1703
ag1682
ag1673
ag1746
asg21
g5496
sg22
I00
sbsg461
g447
sS'ID5NZBUN'
p5502
g1
(g10
g3
NtRp5503
(dp5504
g13
S'IDX1DN25'
p5505
sg15
I1
sg16
(lp5506
sg18
I1
sg19
(lp5507
g194
ag211
ag244
ag275
ag106
ag296
ag151
ag305
ag318
asg21
g5502
sg22
I00
sbsS'IDWF8PWF'
p5508
g1
(g10
g3
NtRp5509
(dp5510
g13
S'ID5X43FW'
p5511
sg15
I1
sg16
(lp5512
sg18
I1
sg19
(lp5513
g349
ag194
ag211
ag362
ag106
ag151
ag411
asg21
g5508
sg22
I00
sbsS'IDBERHC6'
p5514
g1
(g10
g3
NtRp5515
(dp5516
g13
S'IDCZG1SX'
p5517
sg15
I1
sg16
(lp5518
sg18
I1
sg19
(lp5519
g211
ag244
ag275
ag106
ag296
ag151
ag305
ag318
ag194
asg21
g5514
sg22
I00
sbsS'IDRYJT6E'
p5520
g1
(g10
g3
NtRp5521
(dp5522
g13
S'ID0IR4VY'
p5523
sg15
I1
sg16
(lp5524
sg18
I1
sg19
(lp5525
g1682
ag1746
ag1837
ag1682
ag1746
ag1837
asg21
g5520
sg22
I00
sbsS'IDUZ5OKJ'
p5526
g1
(g10
g3
NtRp5527
(dp5528
g13
S'ID1CV5RR'
p5529
sg15
I1
sg16
(lp5530
sg18
I1
sg19
(lp5531
g194
ag151
ag318
ag244
ag211
ag106
ag305
ag275
ag296
ag265
asg21
g5526
sg22
I00
sbsS'IDVF281N'
p5532
g1
(g10
g3
NtRp5533
(dp5534
g13
S'IDDTM7P8'
p5535
sg15
I1
sg16
(lp5536
sg18
I1
sg19
(lp5537
g3198
ag3155
ag3558
ag2864
ag3198
ag2744
ag3155
asg21
g5532
sg22
I00
sbsg1633
g1628
sS'IDW4NZF1'
p5538
g1
(g10
g3
NtRp5539
(dp5540
g13
S'ID6PSXZ7'
p5541
sg15
I1
sg16
(lp5542
sg18
I1
sg19
(lp5543
g1682
ag1816
ag2652
ag1746
ag1733
ag1682
ag1746
ag1816
ag1733
asg21
g5538
sg22
I00
sbsS'IDK1H43C'
p5544
g1
(g10
g3
NtRp5545
(dp5546
g13
S'IDI5UHGA'
p5547
sg15
I1
sg16
(lp5548
sg18
I1
sg19
(lp5549
g3118
ag1746
ag1682
ag1816
asg21
g5544
sg22
I00
sbsS'ID0PNR57'
p5550
g1
(g10
g3
NtRp5551
(dp5552
g13
S'IDAFE23F'
p5553
sg15
I1
sg16
(lp5554
sg18
I1
sg19
(lp5555
g1746
ag1682
ag1816
ag3118
ag1682
ag3118
ag1746
ag1816
asg21
g5550
sg22
I00
sbsg23
g24
sS'IDIUUF77'
p5556
g1
(g10
g3
NtRp5557
(dp5558
g13
S'ID6DW6BP'
p5559
sg15
I1
sg16
(lp5560
sg18
I1
sg19
(lp5561
g106
ag151
ag1114
ag194
ag211
ag405
ag414
asg21
g5556
sg22
I00
sbsS'IDDIOLMZ'
p5562
g1
(g10
g3
NtRp5563
(dp5564
g13
S'IDOMLCWQ'
p5565
sg15
I0
sg16
(lp5566
sg18
I0
sg19
(lp5567
g436
ag405
ag414
asg21
g5562
sg22
I00
sbsS'IDR18DGM'
p5568
g1
(g10
g3
NtRp5569
(dp5570
g13
S'IDNLRZHA'
p5571
sg15
I1
sg16
(lp5572
sg18
I1
sg19
(lp5573
g3198
ag3155
ag3576
ag2864
ag3198
ag2744
ag3155
asg21
g5568
sg22
I00
sbsS'IDMPV34I'
p5574
g1
(g10
g3
NtRp5575
(dp5576
g13
S'ID0CI8PS'
p5577
sg15
I1
sg16
(lp5578
sg18
I1
sg19
(lp5579
g1682
ag1816
ag3118
ag1682
ag3118
ag1746
ag1816
asg21
g5574
sg22
I00
sbsS'ID8IOU9M'
p5580
g1
(g10
g3
NtRp5581
(dp5582
g13
S'IDXBXVIZ'
p5583
sg15
I1
sg16
(lp5584
sg18
I1
sg19
(lp5585
g211
ag244
ag275
ag106
ag296
ag151
ag305
ag318
ag194
asg21
g5580
sg22
I00
sbsg532
g527
sS'ID6SY1GM'
p5586
g1
(g10
g3
NtRp5587
(dp5588
g13
S'ID8YZBMG'
p5589
sg15
I0
sg16
(lp5590
sg18
I0
sg19
(lp5591
g452
ag405
asg21
g5586
sg22
I00
sbsS'IDWB0QHW'
p5592
g1
(g10
g3
NtRp5593
(dp5594
g13
g3565
sg15
I1
sg16
(lp5595
sg18
I1
sg19
(lp5596
g3558
asg21
g5592
sg22
I00
sbsS'ID4YJNKT'
p5597
g1
(g10
g3
NtRp5598
(dp5599
g13
g3283
sg15
I1
sg16
(lp5600
sg18
I1
sg19
(lp5601
g3276
asg21
g5597
sg22
I00
sbsS'IDNSTO89'
p5602
g1
(g10
g3
NtRp5603
(dp5604
g13
S'ID64CMG6'
p5605
sg15
I1
sg16
(lp5606
sg18
I1
sg19
(lp5607
g194
ag211
ag244
ag106
ag151
ag172
ag181
ag411
asg21
g5602
sg22
I00
sbsS'IDLXU0K6'
p5608
g1
(g10
g3
NtRp5609
(dp5610
g13
S'IDAPUZ9P'
p5611
sg15
I0
sg16
(lp5612
sg18
I0
sg19
(lp5613
g1869
ag1746
asg21
g5608
sg22
I00
sbsg1865
g1851
sS'IDB6XN6U'
p5614
g1
(g10
g3
NtRp5615
(dp5616
g13
S'IDBNAV1V'
p5617
sg15
I1
sg16
(lp5618
sg18
I1
sg19
(lp5619
g3528
ag2757
asg21
g5614
sg22
I00
sbsS'IDNY5ARI'
p5620
g1
(g10
g3
NtRp5621
(dp5622
g13
S'ID78W4JV'
p5623
sg15
I0
sg16
(lp5624
sg18
I0
sg19
(lp5625
g1703
ag1797
ag1746
ag1682
asg21
g5620
sg22
I00
sbsS'IDVSECLS'
p5626
g1
(g10
g3
NtRp5627
(dp5628
g13
S'IDAYXI7W'
p5629
sg15
I1
sg16
(lp5630
sg18
I1
sg19
(lp5631
g1746
ag305
ag1816
ag1703
ag1782
ag1720
ag1682
ag1773
asg21
g5626
sg22
I00
sbsS'IDHLHFZQ'
p5632
g1
(g10
g3
NtRp5633
(dp5634
g13
S'IDSOLWGE'
p5635
sg15
I1
sg16
(lp5636
sg18
I1
sg19
(lp5637
g3198
ag3155
ag3558
ag2864
ag3198
ag2744
ag3155
asg21
g5632
sg22
I00
sbsS'ID6OZOJN'
p5638
g1
(g10
g3
NtRp5639
(dp5640
g13
S'ID96LTWG'
p5641
sg15
I1
sg16
(lp5642
sg18
I1
sg19
(lp5643
g1682
ag3118
ag1746
ag1816
ag1682
ag3118
ag1746
ag1816
asg21
g5638
sg22
I00
sbsS'IDH4BCRD'
p5644
g1
(g10
g3
NtRp5645
(dp5646
g13
S'IDE4LLW5'
p5647
sg15
I0
sg16
(lp5648
sg18
I0
sg19
(lp5649
g1682
ag1797
ag1746
asg21
g5644
sg22
I00
sbsS'IDORVK2R'
p5650
g1
(g10
g3
NtRp5651
(dp5652
g13
S'IDXSV0YK'
p5653
sg15
I1
sg16
(lp5654
sg18
I1
sg19
(lp5655
g1746
ag3294
asg21
g5650
sg22
I00
sbsS'ID1QH36E'
p5656
g1
(g10
g3
NtRp5657
(dp5658
g13
S'ID2U5C1U'
p5659
sg15
I1
sg16
(lp5660
sg18
I1
sg19
(lp5661
g3198
ag3155
ag3276
ag2864
ag3198
ag2744
ag3155
asg21
g5656
sg22
I00
sbsS'IDHOQB7A'
p5662
g1
(g10
g3
NtRp5663
(dp5664
g13
S'IDL15LMG'
p5665
sg15
I1
sg16
(lp5666
sg18
I1
sg19
(lp5667
g244
ag275
ag106
ag296
ag151
ag305
ag318
ag194
ag211
asg21
g5662
sg22
I00
sbsg1054
g1049
sS'ID0PHC19'
p5668
g1
(g10
g3
NtRp5669
(dp5670
g13
S'IDN5K3BR'
p5671
sg15
I1
sg16
(lp5672
sg18
I1
sg19
(lp5673
g1746
ag1703
ag1773
ag1720
ag1782
ag1682
ag1763
asg21
g5668
sg22
I00
sbsS'IDIH4TTP'
p5674
g1
(g10
g3
NtRp5675
(dp5676
g13
S'IDY6IJ8Y'
p5677
sg15
I1
sg16
(lp5678
sg18
I1
sg19
(lp5679
g2916
ag3000
ag1746
ag4284
asg21
g5674
sg22
I00
sbsS'ID8PB6S4'
p5680
g1
(g10
g3
NtRp5681
(dp5682
g13
S'IDHT16DZ'
p5683
sg15
I1
sg16
(lp5684
sg18
I1
sg19
(lp5685
g172
ag181
ag194
ag211
ag244
ag106
ag151
ag265
asg21
g5680
sg22
I00
sbsS'IDRV2M83'
p5686
g1
(g10
g3
NtRp5687
(dp5688
g13
S'IDTLQS86'
p5689
sg15
I1
sg16
(lp5690
sg18
I1
sg19
(lp5691
g244
ag275
ag106
ag296
ag151
ag305
ag318
ag194
ag211
ag408
asg21
g5686
sg22
I00
sbsS'IDL8GHVL'
p5692
g1
(g10
g3
NtRp5693
(dp5694
g13
g3247
sg15
I1
sg16
(lp5695
sg18
I1
sg19
(lp5696
g3240
asg21
g5692
sg22
I00
sbsS'ID4M8FWK'
p5697
g1
(g10
g3
NtRp5698
(dp5699
g13
S'ID9RFC42'
p5700
sg15
I1
sg16
(lp5701
sg18
I1
sg19
(lp5702
g3198
ag3155
ag2783
ag2864
ag3198
ag2744
ag3155
asg21
g5697
sg22
I00
sbsS'ID84YHGP'
p5703
g1
(g10
g3
NtRp5704
(dp5705
g13
S'IDENPPEK'
p5706
sg15
I1
sg16
(lp5707
sg18
I1
sg19
(lp5708
g3198
ag3155
ag3558
ag2864
ag3198
ag2744
ag3155
asg21
g5703
sg22
I00
sbsS'IDJZ6PYB'
p5709
g1
(g10
g3
NtRp5710
(dp5711
g13
S'IDQY12H0'
p5712
sg15
I0
sg16
(lp5713
sg18
I0
sg19
(lp5714
g1746
ag211
ag106
ag1682
ag2685
ag408
ag1763
asg21
g5709
sg22
I00
sbsS'ID0K6M32'
p5715
g1
(g10
g3
NtRp5716
(dp5717
g13
S'IDKWXZQ4'
p5718
sg15
I1
sg16
(lp5719
sg18
I1
sg19
(lp5720
g194
ag211
ag244
ag106
ag151
ag955
ag181
ag405
ag414
asg21
g5715
sg22
I00
sbsS'IDSWYQBO'
p5721
g1
(g10
g3
NtRp5722
(dp5723
g13
S'IDJAJJ4G'
p5724
sg15
I1
sg16
(lp5725
sg18
I1
sg19
(lp5726
g2864
ag3198
ag2744
ag3155
ag3558
ag2864
ag3198
ag2744
ag3155
asg21
g5721
sg22
I00
sbsS'IDTGCXLY'
p5727
g1
(g10
g3
NtRp5728
(dp5729
g13
S'ID21WH5X'
p5730
sg15
I1
sg16
(lp5731
sg18
I1
sg19
(lp5732
g318
ag194
ag211
ag244
ag275
ag106
ag296
ag151
ag305
asg21
g5727
sg22
I00
sbsS'IDW8IDVU'
p5733
g1
(g10
g3
NtRp5734
(dp5735
g13
S'IDDJ81UJ'
p5736
sg15
I1
sg16
(lp5737
sg18
I1
sg19
(lp5738
g362
ag194
ag151
ag349
asg21
g5733
sg22
I00
sbsS'IDRJ0HRW'
p5739
g1
(g10
g3
NtRp5740
(dp5741
g13
S'ID8M8SX7'
p5742
sg15
I1
sg16
(lp5743
sg18
I1
sg19
(lp5744
g1816
ag1733
ag1720
ag1703
ag1682
ag1673
ag1746
asg21
g5739
sg22
I00
sbsg649
g644
sS'IDW38R10'
p5745
g1
(g10
g3
NtRp5746
(dp5747
g13
S'ID07HRRV'
p5748
sg15
I1
sg16
(lp5749
sg18
I1
sg19
(lp5750
g318
ag194
ag211
ag244
ag275
ag106
ag296
ag151
ag305
ag411
asg21
g5745
sg22
I00
sbsS'ID2FFSD8'
p5751
g1
(g10
g3
NtRp5752
(dp5753
g13
S'IDO54WBC'
p5754
sg15
I1
sg16
(lp5755
sg18
I1
sg19
(lp5756
g194
ag211
ag244
ag106
ag151
ag172
ag181
ag265
asg21
g5751
sg22
I00
sbsS'IDY7X6TE'
p5757
g1
(g10
g3
NtRp5758
(dp5759
g13
S'IDIJYXYL'
p5760
sg15
I1
sg16
(lp5761
sg18
I1
sg19
(lp5762
g3198
ag3155
ag3231
ag2864
ag3198
ag2744
ag3155
asg21
g5757
sg22
I00
sbsS'ID9PLXLD'
p5763
g1
(g10
g3
NtRp5764
(dp5765
g13
S'ID7SPE9M'
p5766
sg15
I1
sg16
(lp5767
sg18
I1
sg19
(lp5768
g3198
ag3155
ag3585
ag2864
ag3198
ag2744
ag3155
asg21
g5763
sg22
I00
sbsS'IDZCZU7H'
p5769
g1
(g10
g3
NtRp5770
(dp5771
g13
S'IDYN1RZO'
p5772
sg15
I0
sg16
(lp5773
sg18
I0
sg19
(lp5774
g1746
ag1682
ag3172
ag1703
ag408
ag1763
asg21
g5769
sg22
I00
sbsg1791
g1768
sS'IDIGKPFD'
p5775
g1
(g10
g3
NtRp5776
(dp5777
g13
S'IDLTC8CM'
p5778
sg15
I1
sg16
(lp5779
sg18
I1
sg19
(lp5780
g194
ag211
ag244
ag275
ag106
ag296
ag151
ag305
ag318
ag408
asg21
g5775
sg22
I00
sbsS'IDHDGA0U'
p5781
g1
(g10
g3
NtRp5782
(dp5783
g13
S'ID2JPKNU'
p5784
sg15
I1
sg16
(lp5785
sg18
I1
sg19
(lp5786
g3198
ag3155
ag3267
ag2864
ag3198
ag2744
ag3155
asg21
g5781
sg22
I00
sbsS'IDEGM5LQ'
p5787
g1
(g10
g3
NtRp5788
(dp5789
g13
S'IDFFYOZR'
p5790
sg15
I1
sg16
(lp5791
sg18
I1
sg19
(lp5792
g3118
ag1746
ag1682
ag1816
asg21
g5787
sg22
I00
sbsS'IDTKTX1K'
p5793
g1
(g10
g3
NtRp5794
(dp5795
g13
S'ID7DR9M0'
p5796
sg15
I1
sg16
(lp5797
sg18
I1
sg19
(lp5798
g194
ag151
ag305
ag244
ag318
ag275
ag211
ag296
ag106
ag265
asg21
g5793
sg22
I00
sbsS'IDTR14DJ'
p5799
g1
(g10
g3
NtRp5800
(dp5801
g13
S'ID9CLFU8'
p5802
sg15
I1
sg16
(lp5803
sg18
I1
sg19
(lp5804
g1869
ag1746
ag1763
asg21
g5799
sg22
I00
sbsS'ID4PIJBY'
p5805
g1
(g10
g3
NtRp5806
(dp5807
g13
S'ID54F092'
p5808
sg15
I1
sg16
(lp5809
sg18
I1
sg19
(lp5810
g989
ag194
ag211
ag106
ag151
ag414
asg21
g5805
sg22
I00
sbsS'IDX4BL00'
p5811
g1
(g10
g3
NtRp5812
(dp5813
g13
S'IDF0S2P6'
p5814
sg15
I1
sg16
(lp5815
sg18
I1
sg19
(lp5816
g3198
ag3155
ag3315
ag2864
ag3198
ag2744
ag3155
asg21
g5811
sg22
I00
sbsS'ID1GU1X6'
p5817
g1
(g10
g3
NtRp5818
(dp5819
g13
S'IDF998PJ'
p5820
sg15
I1
sg16
(lp5821
sg18
I1
sg19
(lp5822
g106
ag151
ag989
ag194
ag211
ag405
asg21
g5817
sg22
I00
sbsS'IDHXC7CY'
p5823
g1
(g10
g3
NtRp5824
(dp5825
g13
S'IDQP5LCC'
p5826
sg15
I1
sg16
(lp5827
sg18
I1
sg19
(lp5828
g3198
ag3155
ag3267
ag2864
ag3198
ag2744
ag3155
asg21
g5823
sg22
I00
sbsS'IDK2Q4EH'
p5829
g1
(g10
g3
NtRp5830
(dp5831
g13
S'IDD2QPRG'
p5832
sg15
I1
sg16
(lp5833
sg18
I1
sg19
(lp5834
g1746
ag305
ag1816
ag1703
ag1782
ag1720
ag1682
ag1773
asg21
g5829
sg22
I00
sbsS'IDE9PG57'
p5835
g1
(g10
g3
NtRp5836
(dp5837
g13
S'IDPSWA6E'
p5838
sg15
I1
sg16
(lp5839
sg18
I1
sg19
(lp5840
g151
ag305
ag318
ag194
ag211
ag244
ag275
ag106
ag296
asg21
g5835
sg22
I00
sbsS'ID76J2K8'
p5841
g1
(g10
g3
NtRp5842
(dp5843
g13
S'IDZEPRR1'
p5844
sg15
I1
sg16
(lp5845
sg18
I1
sg19
(lp5846
g211
ag244
ag106
ag151
ag172
ag181
ag194
ag408
asg21
g5841
sg22
I00
sbsS'IDHD9291'
p5847
g1
(g10
g3
NtRp5848
(dp5849
g13
S'IDP59MG2'
p5850
sg15
I1
sg16
(lp5851
sg18
I1
sg19
(lp5852
g1682
ag3118
ag1816
ag1682
ag3118
ag1746
ag1816
asg21
g5847
sg22
I00
sbsS'ID81S6IW'
p5853
g1
(g10
g3
NtRp5854
(dp5855
g13
S'IDJRB31J'
p5856
sg15
I1
sg16
(lp5857
sg18
I1
sg19
(lp5858
g1746
ag305
ag1816
ag1703
ag1782
ag1720
ag1682
ag1773
asg21
g5853
sg22
I00
sbsS'IDQNG5NB'
p5859
g1
(g10
g3
NtRp5860
(dp5861
g13
S'IDGEOCGX'
p5862
sg15
I1
sg16
(lp5863
sg18
I1
sg19
(lp5864
g211
ag244
ag106
ag151
ag172
ag181
ag194
ag408
asg21
g5859
sg22
I00
sbsg2166
g2161
sS'IDBAD66Y'
p5865
g1
(g10
g3
NtRp5866
(dp5867
g13
S'IDEKABFF'
p5868
sg15
I0
sg16
(lp5869
sg18
I0
sg19
(lp5870
g3037
ag3037
asg21
g5865
sg22
I00
sbsS'IDKGCYUQ'
p5871
g1
(g10
g3
NtRp5872
(dp5873
g13
S'IDVY92ZS'
p5874
sg15
I0
sg16
(lp5875
sg18
I0
sg19
(lp5876
g172
ag181
ag194
ag211
ag244
ag106
ag151
asg21
g5871
sg22
I00
sbssb.